Component: ARM Compiler 5.06 update 6 (build 750) Tool: armlink [4d35ed]

==============================================================================

Section Cross References

    main.o(.text) refers to mymiscfunc.o(.text) for Delay
    main.o(.text) refers to myboard.o(.text) for RCC_Configuration
    main.o(.text) refers to mytimer.o(.text) for SysTick_Init
    main.o(.text) refers to myapp.o(.text) for AppInit
    main.o(.text) refers to mystorage.o(.text) for StorageInit
    main.o(.text) refers to mynet.o(.text) for NetInit
    main.o(.text) refers to mytftpclient.o(.text) for TftpClientInit
    main.o(.text) refers to myaudio.o(.text) for AudioInit
    main.o(.text) refers to mylwip.o(.text) for LwipProcess
    main.o(.text) refers to myapp.o(.data) for Addr
    main.o(.text) refers to mytimer.o(.data) for MyTmCnt10
    myapp.o(.text) refers to myboard.o(.text) for GetAddress
    myapp.o(.text) refers to myadc.o(.text) for AdcInit
    myapp.o(.text) refers to mykey.o(.text) for KeyInit
    myapp.o(.text) refers to myselftest.o(.text) for SelfTestInit
    myapp.o(.text) refers to myramfunc.o(.text) for ram_function
    myapp.o(.text) refers to mymiscfunc.o(.text) for Delay
    myapp.o(.text) refers to myi2s.o(.text) for I2sOff
    myapp.o(.text) refers to mylwip.o(.text) for LwipOff
    myapp.o(.text) refers to mytimer.o(.text) for TimerOff
    myapp.o(.text) refers to mycommander.o(.text) for CommanderInit
    myapp.o(.text) refers to myapp.o(.data) for AppVersion1
    myapp.o(.text) refers to mynet.o(.data) for reboot_flag
    myapp.o(.text) refers to myaudio.o(.data) for SpeakerState
    myapp.o(.text) refers to myapp.o(.bss) for LedBrightness
    myapp.o(.text) refers to mystorage.o(.text) for StorageInfoSave
    myboard.o(.text) refers to stm32f2xx_rcc.o(.text) for RCC_AHB1PeriphClockCmd
    myboard.o(.text) refers to stm32f2xx_gpio.o(.text) for GPIO_Init
    myboard.o(.text) refers to stm32f2xx_wwdg.o(.text) for WWDG_DeInit
    mymiscfunc.o(.text) refers to strlen.o(.text) for strlen
    mymiscfunc.o(.text) refers to main.o(.data) for Debuger
    mynet.o(.text) refers to mymiscfunc.o(.text) for Delay
    mynet.o(.text) refers to myboard.o(.text) for GetAddress
    mynet.o(.text) refers to myethernet.o(.text) for EthernetInit
    mynet.o(.text) refers to mylwip.o(.text) for LwipInit
    mynet.o(.text) refers to myprotocol.o(.text) for ProtocolInit
    mynet.o(.text) refers to myhttpd.o(.text) for HttpdInit
    mynet.o(.text) refers to mystorage.o(.text) for StorageInfoSave
    mynet.o(.text) refers to inet.o(.text) for htonl
    mynet.o(.text) refers to memcpya.o(.text) for __aeabi_memcpy
    mynet.o(.text) refers to mytftpclient.o(.text) for TftpClientIapStart
    mynet.o(.text) refers to myselftest.o(.text) for SelfTestStart
    mynet.o(.text) refers to myaudio.o(.text) for AudioSetVolume
    mynet.o(.text) refers to mynet.o(.data) for NetLocalMac
    mynet.o(.text) refers to myapp.o(.data) for Addr
    mynet.o(.text) refers to mynet.o(.bss) for NetBuf
    mynet.o(.text) refers to myaudio.o(.bss) for AudioPlayInfo
    mynet.o(.text) refers to myaudio.o(.data) for AudioNdedVolume
    mynet.o(.text) refers to mynoise.o(.data) for NoiseFaultFun
    mynet.o(.text) refers to myflash.o(.text) for FlashWrite
    myethernet.o(.text) refers to stm32f2xx_rcc.o(.text) for RCC_AHB1PeriphClockCmd
    myethernet.o(.text) refers to stm32f2x7_eth.o(.text) for ETH_DeInit
    myethernet.o(.text) refers to stm32f2xx_gpio.o(.text) for GPIO_Init
    myethernet.o(.text) refers to stm32f2xx_syscfg.o(.text) for SYSCFG_ETH_MediaInterfaceConfig
    myethernet.o(.text) refers to myethernet.o(.data) for EthInitStatus
    stm32f2xx_it.o(.text) refers to mytimer.o(.text) for SysTick_Isr
    stm32f2xx_it.o(.text) refers to myi2s.o(.text) for DmaListen_Isr
    mytimer.o(.text) refers to misc.o(.text) for SysTick_CLKSourceConfig
    mytimer.o(.text) refers to stm32f2xx_rcc.o(.text) for RCC_GetClocksFreq
    mytimer.o(.text) refers to mynoise.o(.text) for Noise10ms
    mytimer.o(.text) refers to myaudio.o(.text) for Audio10ms
    mytimer.o(.text) refers to myapp.o(.text) for App10ms
    mytimer.o(.text) refers to mynet.o(.text) for Net50ms
    mytimer.o(.text) refers to mylwip.o(.text) for Lwip50ms
    mytimer.o(.text) refers to myboard.o(.text) for LED1Flash
    mytimer.o(.text) refers to mystorage.o(.text) for StorageInfoSaveProcess
    mytimer.o(.text) refers to myselftest.o(.text) for SelfTest100ms
    mytimer.o(.text) refers to mytftpclient.o(.text) for TftpClient100ms
    mytimer.o(.text) refers to mycommander.o(.text) for Commander500ms
    mytimer.o(.text) refers to mymiscfunc.o(.text) for Delay
    mytimer.o(.text) refers to mytimer.o(.data) for MyTmCnt10
    mytimer.o(.text) refers to myaudio.o(.bss) for AudioPlayInfo
    mytimer.o(.text) refers to mynet.o(.data) for NetOkFlag
    mylwip.o(.text) refers to udp.o(.text) for udp_new
    mylwip.o(.text) refers to mynet.o(.text) for NetDownloadReceiveProcess
    mylwip.o(.text) refers to pbuf.o(.text) for pbuf_free
    mylwip.o(.text) refers to mycommander.o(.text) for CommanderReceive
    mylwip.o(.text) refers to mem.o(.text) for mem_init
    mylwip.o(.text) refers to memp.o(.text) for memp_init
    mylwip.o(.text) refers to inet.o(.text) for htonl
    mylwip.o(.text) refers to netif.o(.text) for netif_add
    mylwip.o(.text) refers to myethernet.o(.text) for EthernetOff
    mylwip.o(.text) refers to ethernetif.o(.text) for ethernetif_input
    mylwip.o(.text) refers to stm32f2x7_eth.o(.text) for ETH_CheckFrameReceived
    mylwip.o(.text) refers to etharp.o(.text) for etharp_tmr
    mylwip.o(.text) refers to mylwip.o(.data) for pUdpDownloadSendPcb
    mylwip.o(.text) refers to ip_addr.o(.constdata) for ip_addr_any
    mylwip.o(.text) refers to mynet.o(.data) for NetLocalIp
    mylwip.o(.text) refers to mylwip.o(.bss) for Netif
    myi2c.o(.text) refers to stm32f2xx_i2c.o(.text) for I2C_Cmd
    myi2c.o(.text) refers to myi2c.o(.data) for I2cTimeout
    myswitch.o(.text) refers to myi2c.o(.text) for I2cKsz8863Init
    myswitch.o(.text) refers to mymiscfunc.o(.text) for Delay
    myi2s.o(.text) refers to stm32f2xx_rcc.o(.text) for RCC_I2SCLKConfig
    myi2s.o(.text) refers to stm32f2xx_spi.o(.text) for SPI_I2S_DeInit
    myi2s.o(.text) refers to stm32f2xx_dma.o(.text) for DMA_Cmd
    myi2s.o(.text) refers to misc.o(.text) for NVIC_Init
    myi2s.o(.text) refers to mymiscfunc.o(.text) for IndexAdd1
    myi2s.o(.text) refers to memseta.o(.text) for __aeabi_memclr
    myi2s.o(.text) refers to myaudio.o(.text) for AudioPlayClockSend
    myi2s.o(.text) refers to myi2s.o(.bss) for DmaPlayMem1
    myi2s.o(.text) refers to myaudio.o(.data) for PlayRightConsumeIndex
    myi2s.o(.text) refers to main.o(.data) for Debuger
    myi2s.o(.text) refers to myi2s.o(.data) for DmaPlayFlag
    myi2s.o(.text) refers to myboard.o(.text) for WriteL3Mode
    myaudio.o(.text) refers to soundcard.o(.text) for soundcard_set_output_vol
    myaudio.o(.text) refers to mymiscfunc.o(.text) for Delay
    myaudio.o(.text) refers to myi2s.o(.text) for I2s2_Init
    myaudio.o(.text) refers to mystorage.o(.text) for StorageInfoRead
    myaudio.o(.text) refers to memcpya.o(.text) for __aeabi_memcpy
    myaudio.o(.text) refers to memseta.o(.text) for __aeabi_memclr
    myaudio.o(.text) refers to myaudio.o(.data) for AudioVolume
    myaudio.o(.text) refers to myapp.o(.data) for CcState
    myaudio.o(.text) refers to myaudio.o(.bss) for PlayLeftFifo
    myaudio.o(.text) refers to myaudiosample.o(.constdata) for Sin100Sample
    myaudio.o(.text) refers to myi2s.o(.data) for DmaPlayFlag
    myaudio.o(.text) refers to mynet.o(.text) for NetTalkTestLeftSend
    myaudio.o(.text) refers to myi2c.o(.text) for PT2257Write
    myaudio.o(.text) refers to myboard.o(.text) for GetEme
    myprotocol.o(.text) refers to mynet.o(.text) for NetIp4toIp32
    myprotocol.o(.text) refers to myaudio.o(.text) for AudioSetVolume
    myprotocol.o(.text) refers to memcpya.o(.text) for __aeabi_memcpy
    myprotocol.o(.text) refers to myapp.o(.data) for DevType
    myprotocol.o(.text) refers to myprotocol.o(.data) for ProtocolLocalInfo
    myprotocol.o(.text) refers to mynet.o(.data) for NetLocalIp
    myprotocol.o(.text) refers to myaudio.o(.data) for VolumeToalDb
    myprotocol.o(.text) refers to mynoise.o(.data) for NoiseDB
    myprotocol.o(.text) refers to myselftest.o(.data) for SelfTestAmplification
    myprotocol.o(.text) refers to myselftest.o(.bss) for SelfTestFrequencyResponse
    myhttpd.o(.text) refers to mem.o(.text) for mem_malloc
    myhttpd.o(.text) refers to tcp.o(.text) for tcp_arg
    myhttpd.o(.text) refers to tcp_out.o(.text) for tcp_write
    myhttpd.o(.text) refers to printf3.o(i.__0sprintf$3) for __2sprintf
    myhttpd.o(.text) refers to strlen.o(.text) for strlen
    myhttpd.o(.text) refers to memcmp.o(.text) for memcmp
    myhttpd.o(.text) refers to mynet.o(.text) for NetControlSendAllDevUpdate
    myhttpd.o(.text) refers to mytftpclient.o(.text) for TftpClientIapStart
    myhttpd.o(.text) refers to pbuf.o(.text) for pbuf_free
    myhttpd.o(.text) refers to memcpya.o(.text) for __aeabi_memcpy
    myhttpd.o(.text) refers to mycommander.o(.text) for CommanderSendHttpInfo
    myhttpd.o(.text) refers to strncmp.o(.text) for strncmp
    myhttpd.o(.text) refers to myhttpd.o(.constdata) for PageUpdating
    myhttpd.o(.text) refers to myhttpd.o(.bss) for PageBuf
    myhttpd.o(.text) refers to myapp.o(.data) for AppVersion4
    myhttpd.o(.text) refers to main.o(.data) for Debuger
    myhttpd.o(.text) refers to ip_addr.o(.constdata) for ip_addr_any
    myflash.o(.text) refers to stm32f2xx_flash.o(.text) for FLASH_Unlock
    myflash.o(.text) refers to myapp.o(.text) for AppOff
    myflash.o(.text) refers to myboard.o(.text) for Wwdg_Feed
    myflash.o(.text) refers to mymiscfunc.o(.text) for Delay
    myflash.o(.text) refers to myramfunc.o(.text) for ram_flash_copy
    myflash.o(.text) refers to myflash.o(.data) for ThisDebuger
    mystorage.o(.text) refers to myi2c.o(.text) for AT24C32_Init
    mystorage.o(.text) refers to mymiscfunc.o(.text) for Delay
    mystorage.o(.text) refers to mystorage.o(.data) for StorageInfoSaveFlag
    mystorage.o(.text) refers to myaudio.o(.data) for EmeVolumeSetFlag
    mystorage.o(.text) refers to mystorage.o(.bss) for StorageInfo
    mystorage.o(.text) refers to mynet.o(.data) for NetLocalIp
    mystorage.o(.text) refers to myapp.o(.data) for TrainId
    mycommander.o(.text) refers to strlen.o(.text) for strlen
    mycommander.o(.text) refers to mylwip.o(.text) for UdpCommanderSend
    mycommander.o(.text) refers to memseta.o(.text) for __aeabi_memclr
    mycommander.o(.text) refers to printf3.o(i.__0sprintf$3) for __2sprintf
    mycommander.o(.text) refers to memcpya.o(.text) for __aeabi_memcpy4
    mycommander.o(.text) refers to myadc.o(.text) for AdcGetValue2
    mycommander.o(.text) refers to mymiscfunc.o(.text) for LineToWords
    mycommander.o(.text) refers to strcmp.o(.text) for strcmp
    mycommander.o(.text) refers to mynet.o(.text) for NetSetLocalIp4
    mycommander.o(.text) refers to myapp.o(.text) for SetDeviceId
    mycommander.o(.text) refers to myaudio.o(.text) for AudioSetVolume
    mycommander.o(.text) refers to mycommander.o(.bss) for OutStr
    mycommander.o(.text) refers to myi2c.o(.data) for I2cError
    mycommander.o(.text) refers to myapp.o(.data) for TrainId
    mycommander.o(.text) refers to mynet.o(.data) for NetLocalIp
    mycommander.o(.text) refers to mycommander.o(.conststring) for .conststring
    mycommander.o(.text) refers to mycommander.o(.data) for CommanderSendAdcValueFlag
    mycommander.o(.text) refers to myaudio.o(.data) for SampleR
    mycommander.o(.text) refers to mynoise.o(.data) for NoiseDB
    mycommander.o(.text) refers to myselftest.o(.text) for SelfTestStart
    mycommander.o(.text) refers to myselftest.o(.data) for SelfTest1kVCount
    mycommander.o(.text) refers to myselftest.o(.bss) for SelfTestFrequencyResponse
    myadc.o(.text) refers to stm32f2xx_rcc.o(.text) for RCC_AHB1PeriphClockCmd
    myadc.o(.text) refers to stm32f2xx_dma.o(.text) for DMA_Init
    myadc.o(.text) refers to stm32f2xx_gpio.o(.text) for GPIO_Init
    myadc.o(.text) refers to stm32f2xx_adc.o(.text) for ADC_CommonInit
    myadc.o(.text) refers to myadc.o(.bss) for AdcConvertedValue
    mykey.o(.text) refers to myboard.o(.text) for GetKeyUp
    mykey.o(.text) refers to mykey.o(.data) for KeyValue
    mykey.o(.text) refers to main.o(.data) for Debuger
    myselftest.o(.text) refers to myaudio.o(.text) for AudioPlayTestSin
    myselftest.o(.text) refers to mycommander.o(.text) for CommanderSendAudioInputSampleVFigure
    myselftest.o(.text) refers to mynet.o(.text) for NetControlSendSelfTestReport
    myselftest.o(.text) refers to dflti.o(.text) for __aeabi_i2d
    myselftest.o(.text) refers to ddiv.o(.text) for __aeabi_ddiv
    myselftest.o(.text) refers to log10.o(i.log10) for log10
    myselftest.o(.text) refers to dmul.o(.text) for __aeabi_dmul
    myselftest.o(.text) refers to dfixi.o(.text) for __aeabi_d2iz
    myselftest.o(.text) refers to myselftest.o(.bss) for SelfTestFrequencyResponse
    myselftest.o(.text) refers to myaudio.o(.bss) for AudioPlayInfo
    myselftest.o(.text) refers to myselftest.o(.data) for SelfTestStartFlag
    myselftest.o(.text) refers to myaudio.o(.data) for AudioInputSampleV
    mytftpclient.o(.text) refers to udp.o(.text) for udp_connect
    mytftpclient.o(.text) refers to pbuf.o(.text) for pbuf_alloc
    mytftpclient.o(.text) refers to myflash.o(.text) for FlashProgramCopy
    mytftpclient.o(.text) refers to memcpya.o(.text) for __aeabi_memcpy
    mytftpclient.o(.text) refers to inet.o(.text) for htonl
    mytftpclient.o(.text) refers to memseta.o(.text) for __aeabi_memclr
    mytftpclient.o(.text) refers to strlen.o(.text) for strlen
    mytftpclient.o(.text) refers to mytftpclient.o(.data) for ServerPort
    mytftpclient.o(.text) refers to mytftpclient.o(.bss) for DaBuf
    mytftpclient.o(.text) refers to ip_addr.o(.constdata) for ip_addr_any
    myramfunc.o(.text) refers to myramfunc.o(.data) for count
    mynoise.o(.text) refers to myadc.o(.text) for AdcNewGetValue1
    mynoise.o(.text) refers to myaudio.o(.text) for AudioSetNdOffset
    mynoise.o(.text) refers to mycommander.o(.text) for CommanderSendString
    mynoise.o(.text) refers to mynoise.o(.data) for NoiseTable_Adv
    mynoise.o(.text) refers to mynoise.o(.bss) for Noise1Buf
    mynoise.o(.text) refers to myaudio.o(.data) for AudioNdOffset
    mynoise.o(.text) refers to myapp.o(.data) for NoiseDetectState
    soundcard.o(.text) refers to stm32f2xx_i2c.o(.text) for I2C_Cmd
    soundcard.o(.text) refers to soundcard.o(.data) for I2C_SGTL5000_Timeout
    soundcard.o(.text) refers to stm32f2xx_gpio.o(.text) for GPIO_SetBits
    soundcard.o(.text) refers to mymiscfunc.o(.text) for Delay
    stm32f2xx_gpio.o(.text) refers to stm32f2xx_rcc.o(.text) for RCC_AHB1PeriphResetCmd
    stm32f2xx_i2c.o(.text) refers to stm32f2xx_rcc.o(.text) for RCC_APB1PeriphResetCmd
    stm32f2xx_pwr.o(.text) refers to stm32f2xx_rcc.o(.text) for RCC_APB1PeriphResetCmd
    stm32f2xx_rcc.o(.text) refers to stm32f2xx_rcc.o(.data) for APBAHBPrescTable
    stm32f2xx_spi.o(.text) refers to stm32f2xx_rcc.o(.text) for RCC_APB2PeriphResetCmd
    stm32f2xx_syscfg.o(.text) refers to stm32f2xx_rcc.o(.text) for RCC_APB2PeriphResetCmd
    stm32f2xx_tim.o(.text) refers to stm32f2xx_rcc.o(.text) for RCC_APB2PeriphResetCmd
    stm32f2xx_usart.o(.text) refers to stm32f2xx_rcc.o(.text) for RCC_APB2PeriphResetCmd
    stm32f2xx_adc.o(.text) refers to stm32f2xx_rcc.o(.text) for RCC_APB2PeriphResetCmd
    stm32f2xx_wwdg.o(.text) refers to stm32f2xx_rcc.o(.text) for RCC_APB1PeriphResetCmd
    startup_stm32f2xx.o(RESET) refers to startup_stm32f2xx.o(STACK) for __initial_sp
    startup_stm32f2xx.o(RESET) refers to startup_stm32f2xx.o(.text) for Reset_Handler
    startup_stm32f2xx.o(RESET) refers to stm32f2xx_it.o(.text) for NMI_Handler
    startup_stm32f2xx.o(.text) refers to system_stm32f2xx.o(.text) for SystemInit
    startup_stm32f2xx.o(.text) refers to entry.o(.ARM.Collect$$$$00000000) for __main
    system_stm32f2xx.o(.text) refers to system_stm32f2xx.o(.data) for SystemCoreClock
    stm32f2x7_eth.o(.text) refers to stm32f2xx_rcc.o(.text) for RCC_AHB1PeriphResetCmd
    stm32f2x7_eth.o(.text) refers to stm32f2x7_eth.o(.data) for DMARxDescToGet
    stm32f2x7_eth.o(.text) refers to stm32f2x7_eth.o(.bss) for RX_Frame_Descriptor
    init.o(.text) refers to mem.o(.text) for mem_init
    init.o(.text) refers to memp.o(.text) for memp_init
    init.o(.text) refers to autoip.o(.text) for autoip_init
    mem.o(.text) refers to memseta.o(.text) for __aeabi_memclr
    mem.o(.text) refers to mem.o(.data) for ram
    mem.o(.text) refers to mem.o(.bss) for ram_heap
    memp.o(.text) refers to memp.o(.bss) for memp_memory
    memp.o(.text) refers to memp.o(.constdata) for memp_sizes
    netif.o(.text) refers to tcp.o(.text) for tcp_abandon
    netif.o(.text) refers to etharp.o(.text) for etharp_request
    netif.o(.text) refers to tcp.o(.data) for tcp_active_pcbs
    netif.o(.text) refers to netif.o(.data) for netifnum
    pbuf.o(.text) refers to memp.o(.text) for memp_free
    pbuf.o(.text) refers to mem.o(.text) for mem_free
    pbuf.o(.text) refers to memcpya.o(.text) for __aeabi_memcpy
    raw.o(.text) refers to inet.o(.text) for ntohs
    raw.o(.text) refers to pbuf.o(.text) for pbuf_header
    raw.o(.text) refers to ip.o(.text) for ip_route
    raw.o(.text) refers to memp.o(.text) for memp_free
    raw.o(.text) refers to memseta.o(.text) for __aeabi_memclr4
    raw.o(.text) refers to raw.o(.data) for raw_pcbs
    tcp.o(.text) refers to pbuf.o(.text) for pbuf_free
    tcp.o(.text) refers to memp.o(.text) for memp_free
    tcp.o(.text) refers to tcp_out.o(.text) for tcp_zero_window_probe
    tcp.o(.text) refers to tcp.o(.data) for tcp_ticks
    tcp.o(.text) refers to tcp.o(.constdata) for tcp_persist_backoff
    tcp.o(.text) refers to ip.o(.text) for ip_route
    tcp.o(.text) refers to memseta.o(.text) for __aeabi_memclr4
    tcp.o(.data) refers to tcp.o(.conststring) for .conststring
    tcp_in.o(.text) refers to tcp_out.o(.text) for tcp_rexmit_fast
    tcp_in.o(.text) refers to pbuf.o(.text) for pbuf_clen
    tcp_in.o(.text) refers to inet.o(.text) for ntohs
    tcp_in.o(.text) refers to tcp.o(.text) for tcp_seg_free
    tcp_in.o(.text) refers to tcp_in.o(.data) for flags
    tcp_in.o(.text) refers to tcp.o(.data) for tcp_ticks
    tcp_in.o(.text) refers to tcp_in.o(.bss) for inseg
    tcp_in.o(.text) refers to ip_addr.o(.text) for ip_addr_isbroadcast
    tcp_in.o(.text) refers to memp.o(.text) for memp_free
    tcp_out.o(.text) refers to inet.o(.text) for htons
    tcp_out.o(.text) refers to memp.o(.text) for memp_malloc
    tcp_out.o(.text) refers to pbuf.o(.text) for pbuf_alloc
    tcp_out.o(.text) refers to memcpya.o(.text) for __aeabi_memcpy
    tcp_out.o(.text) refers to tcp.o(.text) for tcp_segs_free
    tcp_out.o(.text) refers to ip.o(.text) for ip_output
    tcp_out.o(.text) refers to tcp.o(.data) for tcp_ticks
    tcp_out.o(.text) refers to tcp_in.o(.data) for tcp_input_pcb
    udp.o(.text) refers to inet.o(.text) for ntohs
    udp.o(.text) refers to pbuf.o(.text) for pbuf_header
    udp.o(.text) refers to ip_addr.o(.text) for ip_addr_isbroadcast
    udp.o(.text) refers to icmp.o(.text) for icmp_dest_unreach
    udp.o(.text) refers to ip.o(.text) for ip_output_if
    udp.o(.text) refers to memp.o(.text) for memp_free
    udp.o(.text) refers to memseta.o(.text) for __aeabi_memclr4
    udp.o(.text) refers to udp.o(.data) for udp_pcbs
    udp.o(.text) refers to ip_addr.o(.constdata) for ip_addr_any
    autoip.o(.text) refers to inet.o(.text) for htonl
    autoip.o(.text) refers to netif.o(.text) for netif_is_up
    autoip.o(.text) refers to mem.o(.text) for mem_malloc
    autoip.o(.text) refers to etharp.o(.text) for etharp_raw
    autoip.o(.text) refers to memcmp.o(.text) for memcmp
    autoip.o(.text) refers to etharp.o(.constdata) for ethzero
    autoip.o(.text) refers to ip_addr.o(.constdata) for ip_addr_any
    autoip.o(.text) refers to netif.o(.data) for netif_list
    icmp.o(.text) refers to inet.o(.text) for ntohs
    icmp.o(.text) refers to pbuf.o(.text) for pbuf_header
    icmp.o(.text) refers to ip_addr.o(.text) for ip_addr_isbroadcast
    icmp.o(.text) refers to inet_chksum.o(.text) for inet_chksum_pbuf
    icmp.o(.text) refers to ip.o(.text) for ip_output_if
    icmp.o(.text) refers to memcpya.o(.text) for __aeabi_memcpy
    inet.o(.text) refers to inet.o(.bss) for str
    inet_chksum.o(.text) refers to inet.o(.text) for htons
    ip.o(.text) refers to netif.o(.text) for netif_is_up
    ip.o(.text) refers to inet.o(.text) for ntohs
    ip.o(.text) refers to pbuf.o(.text) for pbuf_free
    ip.o(.text) refers to ip_addr.o(.text) for ip_addr_isbroadcast
    ip.o(.text) refers to ip_frag.o(.text) for ip_reass
    ip.o(.text) refers to raw.o(.text) for raw_input
    ip.o(.text) refers to udp.o(.text) for udp_input
    ip.o(.text) refers to tcp_in.o(.text) for tcp_input
    ip.o(.text) refers to icmp.o(.text) for icmp_input
    ip.o(.text) refers to netif.o(.data) for netif_list
    ip.o(.text) refers to ip.o(.data) for current_netif
    ip_frag.o(.text) refers to memp.o(.text) for memp_free
    ip_frag.o(.text) refers to memcpya.o(.text) for __aeabi_memcpy
    ip_frag.o(.text) refers to icmp.o(.text) for icmp_time_exceeded
    ip_frag.o(.text) refers to pbuf.o(.text) for pbuf_clen
    ip_frag.o(.text) refers to memseta.o(.text) for __aeabi_memclr4
    ip_frag.o(.text) refers to inet.o(.text) for ntohs
    ip_frag.o(.text) refers to ip_frag.o(.data) for reassdatagrams
    ip_frag.o(.text) refers to inet_chksum.o(.text) for inet_chksum
    ip_frag.o(.text) refers to ip_frag.o(.bss) for buf
    etharp.o(.text) refers to pbuf.o(.text) for pbuf_free
    etharp.o(.text) refers to memp.o(.text) for memp_free
    etharp.o(.text) refers to inet.o(.text) for htons
    etharp.o(.text) refers to ip_addr.o(.text) for ip_addr_isbroadcast
    etharp.o(.text) refers to etharp.o(.bss) for arp_table
    etharp.o(.text) refers to etharp.o(.data) for etharp_cached_entry
    etharp.o(.text) refers to autoip.o(.text) for autoip_arp_reply
    etharp.o(.text) refers to ip.o(.text) for ip_input
    etharp.o(.text) refers to etharp.o(.constdata) for ethbroadcast
    ethernetif.o(.text) refers to stm32f2x7_eth.o(.text) for ETH_MACAddressConfig
    ethernetif.o(.text) refers to memcpya.o(.text) for __aeabi_memcpy
    ethernetif.o(.text) refers to pbuf.o(.text) for pbuf_alloc
    ethernetif.o(.text) refers to mynet.o(.data) for NetLocalMac
    ethernetif.o(.text) refers to stm32f2x7_eth.o(.bss) for Tx_Buff
    ethernetif.o(.text) refers to stm32f2x7_eth.o(.data) for DMATxDescToSet
    ethernetif.o(.text) refers to etharp.o(.text) for etharp_output
    log10.o(i.__softfp_log10) refers (Special) to iusefp.o(.text) for __I$use$fp
    log10.o(i.__softfp_log10) refers to log10.o(i.log10) for log10
    log10.o(i.log10) refers (Special) to iusefp.o(.text) for __I$use$fp
    log10.o(i.log10) refers to dunder.o(i.__mathlib_dbl_infnan) for __mathlib_dbl_infnan
    log10.o(i.log10) refers to errno.o(i.__set_errno) for __set_errno
    log10.o(i.log10) refers to dunder.o(i.__mathlib_dbl_invalid) for __mathlib_dbl_invalid
    log10.o(i.log10) refers to dunder.o(i.__mathlib_dbl_divzero) for __mathlib_dbl_divzero
    log10.o(i.log10) refers to dscalb.o(.text) for __ARM_scalbn
    log10.o(i.log10) refers to dflti.o(.text) for __aeabi_i2d
    log10.o(i.log10) refers to log.o(i.log) for log
    log10.o(i.log10) refers to dmul.o(.text) for __aeabi_dmul
    log10.o(i.log10) refers to dadd.o(.text) for __aeabi_dadd
    log10_x.o(i.____softfp_log10$lsc) refers (Special) to iusefp.o(.text) for __I$use$fp
    log10_x.o(i.____softfp_log10$lsc) refers to log10_x.o(i.__log10$lsc) for __log10$lsc
    log10_x.o(i.__log10$lsc) refers (Special) to iusefp.o(.text) for __I$use$fp
    log10_x.o(i.__log10$lsc) refers to dunder.o(i.__mathlib_dbl_infnan) for __mathlib_dbl_infnan
    log10_x.o(i.__log10$lsc) refers to errno.o(i.__set_errno) for __set_errno
    log10_x.o(i.__log10$lsc) refers to dscalb.o(.text) for __ARM_scalbn
    log10_x.o(i.__log10$lsc) refers to dflti.o(.text) for __aeabi_i2d
    log10_x.o(i.__log10$lsc) refers to log.o(i.log) for log
    log10_x.o(i.__log10$lsc) refers to dmul.o(.text) for __aeabi_dmul
    log10_x.o(i.__log10$lsc) refers to dadd.o(.text) for __aeabi_dadd
    entry.o(.ARM.Collect$$$$00000000) refers (Special) to entry10a.o(.ARM.Collect$$$$0000000D) for __rt_final_cpp
    entry.o(.ARM.Collect$$$$00000000) refers (Special) to entry11a.o(.ARM.Collect$$$$0000000F) for __rt_final_exit
    entry.o(.ARM.Collect$$$$00000000) refers (Special) to entry7b.o(.ARM.Collect$$$$00000008) for _main_clock
    entry.o(.ARM.Collect$$$$00000000) refers (Special) to entry8b.o(.ARM.Collect$$$$0000000A) for _main_cpp_init
    entry.o(.ARM.Collect$$$$00000000) refers (Special) to entry9a.o(.ARM.Collect$$$$0000000B) for _main_init
    entry.o(.ARM.Collect$$$$00000000) refers (Special) to entry5.o(.ARM.Collect$$$$00000004) for _main_scatterload
    entry.o(.ARM.Collect$$$$00000000) refers (Special) to entry2.o(.ARM.Collect$$$$00000001) for _main_stk
    printfb.o(i.__0fprintf$bare) refers to printfb.o(i._printf_core) for _printf_core
    printfb.o(i.__0fprintf$bare) refers to fputc.o(i.fputc) for fputc
    printfb.o(i.__0printf$bare) refers to printfb.o(i._printf_core) for _printf_core
    printfb.o(i.__0printf$bare) refers to fputc.o(i.fputc) for fputc
    printfb.o(i.__0printf$bare) refers to stdout.o(.data) for __stdout
    printfb.o(i.__0snprintf$bare) refers to printfb.o(i._printf_core) for _printf_core
    printfb.o(i.__0snprintf$bare) refers to printfb.o(i._snputc) for _snputc
    printfb.o(i.__0sprintf$bare) refers to printfb.o(i._printf_core) for _printf_core
    printfb.o(i.__0sprintf$bare) refers to printfb.o(i._sputc) for _sputc
    printfb.o(i.__0vfprintf$bare) refers to printfb.o(i._printf_core) for _printf_core
    printfb.o(i.__0vfprintf$bare) refers to fputc.o(i.fputc) for fputc
    printfb.o(i.__0vprintf$bare) refers to printfb.o(i._printf_core) for _printf_core
    printfb.o(i.__0vprintf$bare) refers to fputc.o(i.fputc) for fputc
    printfb.o(i.__0vprintf$bare) refers to stdout.o(.data) for __stdout
    printfb.o(i.__0vsnprintf$bare) refers to printfb.o(i._printf_core) for _printf_core
    printfb.o(i.__0vsnprintf$bare) refers to printfb.o(i._snputc) for _snputc
    printfb.o(i.__0vsprintf$bare) refers to printfb.o(i._printf_core) for _printf_core
    printfb.o(i.__0vsprintf$bare) refers to printfb.o(i._sputc) for _sputc
    printf0.o(i.__0fprintf$0) refers to printf0.o(i._printf_core) for _printf_core
    printf0.o(i.__0fprintf$0) refers to fputc.o(i.fputc) for fputc
    printf0.o(i.__0printf$0) refers to printf0.o(i._printf_core) for _printf_core
    printf0.o(i.__0printf$0) refers to fputc.o(i.fputc) for fputc
    printf0.o(i.__0printf$0) refers to stdout.o(.data) for __stdout
    printf0.o(i.__0snprintf$0) refers to printf0.o(i._printf_core) for _printf_core
    printf0.o(i.__0snprintf$0) refers to printf0.o(i._snputc) for _snputc
    printf0.o(i.__0sprintf$0) refers to printf0.o(i._printf_core) for _printf_core
    printf0.o(i.__0sprintf$0) refers to printf0.o(i._sputc) for _sputc
    printf0.o(i.__0vfprintf$0) refers to printf0.o(i._printf_core) for _printf_core
    printf0.o(i.__0vfprintf$0) refers to fputc.o(i.fputc) for fputc
    printf0.o(i.__0vprintf$0) refers to printf0.o(i._printf_core) for _printf_core
    printf0.o(i.__0vprintf$0) refers to fputc.o(i.fputc) for fputc
    printf0.o(i.__0vprintf$0) refers to stdout.o(.data) for __stdout
    printf0.o(i.__0vsnprintf$0) refers to printf0.o(i._printf_core) for _printf_core
    printf0.o(i.__0vsnprintf$0) refers to printf0.o(i._snputc) for _snputc
    printf0.o(i.__0vsprintf$0) refers to printf0.o(i._printf_core) for _printf_core
    printf0.o(i.__0vsprintf$0) refers to printf0.o(i._sputc) for _sputc
    printf1.o(i.__0fprintf$1) refers to printf1.o(i._printf_core) for _printf_core
    printf1.o(i.__0fprintf$1) refers to fputc.o(i.fputc) for fputc
    printf1.o(i.__0printf$1) refers to printf1.o(i._printf_core) for _printf_core
    printf1.o(i.__0printf$1) refers to fputc.o(i.fputc) for fputc
    printf1.o(i.__0printf$1) refers to stdout.o(.data) for __stdout
    printf1.o(i.__0snprintf$1) refers to printf1.o(i._printf_core) for _printf_core
    printf1.o(i.__0snprintf$1) refers to printf1.o(i._snputc) for _snputc
    printf1.o(i.__0sprintf$1) refers to printf1.o(i._printf_core) for _printf_core
    printf1.o(i.__0sprintf$1) refers to printf1.o(i._sputc) for _sputc
    printf1.o(i.__0vfprintf$1) refers to printf1.o(i._printf_core) for _printf_core
    printf1.o(i.__0vfprintf$1) refers to fputc.o(i.fputc) for fputc
    printf1.o(i.__0vprintf$1) refers to printf1.o(i._printf_core) for _printf_core
    printf1.o(i.__0vprintf$1) refers to fputc.o(i.fputc) for fputc
    printf1.o(i.__0vprintf$1) refers to stdout.o(.data) for __stdout
    printf1.o(i.__0vsnprintf$1) refers to printf1.o(i._printf_core) for _printf_core
    printf1.o(i.__0vsnprintf$1) refers to printf1.o(i._snputc) for _snputc
    printf1.o(i.__0vsprintf$1) refers to printf1.o(i._printf_core) for _printf_core
    printf1.o(i.__0vsprintf$1) refers to printf1.o(i._sputc) for _sputc
    printf1.o(i._printf_core) refers to uidiv.o(.text) for __aeabi_uidivmod
    printf2.o(i.__0fprintf$2) refers to printf2.o(i._printf_core) for _printf_core
    printf2.o(i.__0fprintf$2) refers to fputc.o(i.fputc) for fputc
    printf2.o(i.__0printf$2) refers to printf2.o(i._printf_core) for _printf_core
    printf2.o(i.__0printf$2) refers to fputc.o(i.fputc) for fputc
    printf2.o(i.__0printf$2) refers to stdout.o(.data) for __stdout
    printf2.o(i.__0snprintf$2) refers to printf2.o(i._printf_core) for _printf_core
    printf2.o(i.__0snprintf$2) refers to printf2.o(i._snputc) for _snputc
    printf2.o(i.__0sprintf$2) refers to printf2.o(i._printf_core) for _printf_core
    printf2.o(i.__0sprintf$2) refers to printf2.o(i._sputc) for _sputc
    printf2.o(i.__0vfprintf$2) refers to printf2.o(i._printf_core) for _printf_core
    printf2.o(i.__0vfprintf$2) refers to fputc.o(i.fputc) for fputc
    printf2.o(i.__0vprintf$2) refers to printf2.o(i._printf_core) for _printf_core
    printf2.o(i.__0vprintf$2) refers to fputc.o(i.fputc) for fputc
    printf2.o(i.__0vprintf$2) refers to stdout.o(.data) for __stdout
    printf2.o(i.__0vsnprintf$2) refers to printf2.o(i._printf_core) for _printf_core
    printf2.o(i.__0vsnprintf$2) refers to printf2.o(i._snputc) for _snputc
    printf2.o(i.__0vsprintf$2) refers to printf2.o(i._printf_core) for _printf_core
    printf2.o(i.__0vsprintf$2) refers to printf2.o(i._sputc) for _sputc
    printf3.o(i.__0fprintf$3) refers to printf3.o(i._printf_core) for _printf_core
    printf3.o(i.__0fprintf$3) refers to fputc.o(i.fputc) for fputc
    printf3.o(i.__0printf$3) refers to printf3.o(i._printf_core) for _printf_core
    printf3.o(i.__0printf$3) refers to fputc.o(i.fputc) for fputc
    printf3.o(i.__0printf$3) refers to stdout.o(.data) for __stdout
    printf3.o(i.__0snprintf$3) refers to printf3.o(i._printf_core) for _printf_core
    printf3.o(i.__0snprintf$3) refers to printf3.o(i._snputc) for _snputc
    printf3.o(i.__0sprintf$3) refers to printf3.o(i._printf_core) for _printf_core
    printf3.o(i.__0sprintf$3) refers to printf3.o(i._sputc) for _sputc
    printf3.o(i.__0vfprintf$3) refers to printf3.o(i._printf_core) for _printf_core
    printf3.o(i.__0vfprintf$3) refers to fputc.o(i.fputc) for fputc
    printf3.o(i.__0vprintf$3) refers to printf3.o(i._printf_core) for _printf_core
    printf3.o(i.__0vprintf$3) refers to fputc.o(i.fputc) for fputc
    printf3.o(i.__0vprintf$3) refers to stdout.o(.data) for __stdout
    printf3.o(i.__0vsnprintf$3) refers to printf3.o(i._printf_core) for _printf_core
    printf3.o(i.__0vsnprintf$3) refers to printf3.o(i._snputc) for _snputc
    printf3.o(i.__0vsprintf$3) refers to printf3.o(i._printf_core) for _printf_core
    printf3.o(i.__0vsprintf$3) refers to printf3.o(i._sputc) for _sputc
    printf3.o(i._printf_core) refers to uidiv.o(.text) for __aeabi_uidivmod
    printf4.o(i.__0fprintf$4) refers to printf4.o(i._printf_core) for _printf_core
    printf4.o(i.__0fprintf$4) refers to fputc.o(i.fputc) for fputc
    printf4.o(i.__0printf$4) refers to printf4.o(i._printf_core) for _printf_core
    printf4.o(i.__0printf$4) refers to fputc.o(i.fputc) for fputc
    printf4.o(i.__0printf$4) refers to stdout.o(.data) for __stdout
    printf4.o(i.__0snprintf$4) refers to printf4.o(i._printf_core) for _printf_core
    printf4.o(i.__0snprintf$4) refers to printf4.o(i._snputc) for _snputc
    printf4.o(i.__0sprintf$4) refers to printf4.o(i._printf_core) for _printf_core
    printf4.o(i.__0sprintf$4) refers to printf4.o(i._sputc) for _sputc
    printf4.o(i.__0vfprintf$4) refers to printf4.o(i._printf_core) for _printf_core
    printf4.o(i.__0vfprintf$4) refers to fputc.o(i.fputc) for fputc
    printf4.o(i.__0vprintf$4) refers to printf4.o(i._printf_core) for _printf_core
    printf4.o(i.__0vprintf$4) refers to fputc.o(i.fputc) for fputc
    printf4.o(i.__0vprintf$4) refers to stdout.o(.data) for __stdout
    printf4.o(i.__0vsnprintf$4) refers to printf4.o(i._printf_core) for _printf_core
    printf4.o(i.__0vsnprintf$4) refers to printf4.o(i._snputc) for _snputc
    printf4.o(i.__0vsprintf$4) refers to printf4.o(i._printf_core) for _printf_core
    printf4.o(i.__0vsprintf$4) refers to printf4.o(i._sputc) for _sputc
    printf4.o(i._printf_core) refers to uldiv.o(.text) for __aeabi_uldivmod
    printf5.o(i.__0fprintf$5) refers to printf5.o(i._printf_core) for _printf_core
    printf5.o(i.__0fprintf$5) refers to fputc.o(i.fputc) for fputc
    printf5.o(i.__0printf$5) refers to printf5.o(i._printf_core) for _printf_core
    printf5.o(i.__0printf$5) refers to fputc.o(i.fputc) for fputc
    printf5.o(i.__0printf$5) refers to stdout.o(.data) for __stdout
    printf5.o(i.__0snprintf$5) refers to printf5.o(i._printf_core) for _printf_core
    printf5.o(i.__0snprintf$5) refers to printf5.o(i._snputc) for _snputc
    printf5.o(i.__0sprintf$5) refers to printf5.o(i._printf_core) for _printf_core
    printf5.o(i.__0sprintf$5) refers to printf5.o(i._sputc) for _sputc
    printf5.o(i.__0vfprintf$5) refers to printf5.o(i._printf_core) for _printf_core
    printf5.o(i.__0vfprintf$5) refers to fputc.o(i.fputc) for fputc
    printf5.o(i.__0vprintf$5) refers to printf5.o(i._printf_core) for _printf_core
    printf5.o(i.__0vprintf$5) refers to fputc.o(i.fputc) for fputc
    printf5.o(i.__0vprintf$5) refers to stdout.o(.data) for __stdout
    printf5.o(i.__0vsnprintf$5) refers to printf5.o(i._printf_core) for _printf_core
    printf5.o(i.__0vsnprintf$5) refers to printf5.o(i._snputc) for _snputc
    printf5.o(i.__0vsprintf$5) refers to printf5.o(i._printf_core) for _printf_core
    printf5.o(i.__0vsprintf$5) refers to printf5.o(i._sputc) for _sputc
    printf5.o(i._printf_core) refers to uldiv.o(.text) for __aeabi_uldivmod
    printf6.o(i.__0fprintf$6) refers to printf6.o(i._printf_core) for _printf_core
    printf6.o(i.__0fprintf$6) refers to fputc.o(i.fputc) for fputc
    printf6.o(i.__0printf$6) refers to printf6.o(i._printf_core) for _printf_core
    printf6.o(i.__0printf$6) refers to fputc.o(i.fputc) for fputc
    printf6.o(i.__0printf$6) refers to stdout.o(.data) for __stdout
    printf6.o(i.__0snprintf$6) refers to printf6.o(i._printf_core) for _printf_core
    printf6.o(i.__0snprintf$6) refers to printf6.o(i._snputc) for _snputc
    printf6.o(i.__0sprintf$6) refers to printf6.o(i._printf_core) for _printf_core
    printf6.o(i.__0sprintf$6) refers to printf6.o(i._sputc) for _sputc
    printf6.o(i.__0vfprintf$6) refers to printf6.o(i._printf_core) for _printf_core
    printf6.o(i.__0vfprintf$6) refers to fputc.o(i.fputc) for fputc
    printf6.o(i.__0vprintf$6) refers to printf6.o(i._printf_core) for _printf_core
    printf6.o(i.__0vprintf$6) refers to fputc.o(i.fputc) for fputc
    printf6.o(i.__0vprintf$6) refers to stdout.o(.data) for __stdout
    printf6.o(i.__0vsnprintf$6) refers to printf6.o(i._printf_core) for _printf_core
    printf6.o(i.__0vsnprintf$6) refers to printf6.o(i._snputc) for _snputc
    printf6.o(i.__0vsprintf$6) refers to printf6.o(i._printf_core) for _printf_core
    printf6.o(i.__0vsprintf$6) refers to printf6.o(i._sputc) for _sputc
    printf6.o(i._printf_core) refers to printf6.o(i._printf_pre_padding) for _printf_pre_padding
    printf6.o(i._printf_core) refers to uidiv.o(.text) for __aeabi_uidivmod
    printf6.o(i._printf_core) refers to printf6.o(i._printf_post_padding) for _printf_post_padding
    printf7.o(i.__0fprintf$7) refers to printf7.o(i._printf_core) for _printf_core
    printf7.o(i.__0fprintf$7) refers to fputc.o(i.fputc) for fputc
    printf7.o(i.__0printf$7) refers to printf7.o(i._printf_core) for _printf_core
    printf7.o(i.__0printf$7) refers to fputc.o(i.fputc) for fputc
    printf7.o(i.__0printf$7) refers to stdout.o(.data) for __stdout
    printf7.o(i.__0snprintf$7) refers to printf7.o(i._printf_core) for _printf_core
    printf7.o(i.__0snprintf$7) refers to printf7.o(i._snputc) for _snputc
    printf7.o(i.__0sprintf$7) refers to printf7.o(i._printf_core) for _printf_core
    printf7.o(i.__0sprintf$7) refers to printf7.o(i._sputc) for _sputc
    printf7.o(i.__0vfprintf$7) refers to printf7.o(i._printf_core) for _printf_core
    printf7.o(i.__0vfprintf$7) refers to fputc.o(i.fputc) for fputc
    printf7.o(i.__0vprintf$7) refers to printf7.o(i._printf_core) for _printf_core
    printf7.o(i.__0vprintf$7) refers to fputc.o(i.fputc) for fputc
    printf7.o(i.__0vprintf$7) refers to stdout.o(.data) for __stdout
    printf7.o(i.__0vsnprintf$7) refers to printf7.o(i._printf_core) for _printf_core
    printf7.o(i.__0vsnprintf$7) refers to printf7.o(i._snputc) for _snputc
    printf7.o(i.__0vsprintf$7) refers to printf7.o(i._printf_core) for _printf_core
    printf7.o(i.__0vsprintf$7) refers to printf7.o(i._sputc) for _sputc
    printf7.o(i._printf_core) refers to printf7.o(i._printf_pre_padding) for _printf_pre_padding
    printf7.o(i._printf_core) refers to uldiv.o(.text) for __aeabi_uldivmod
    printf7.o(i._printf_core) refers to printf7.o(i._printf_post_padding) for _printf_post_padding
    printf8.o(i.__0fprintf$8) refers to printf8.o(i._printf_core) for _printf_core
    printf8.o(i.__0fprintf$8) refers to fputc.o(i.fputc) for fputc
    printf8.o(i.__0printf$8) refers to printf8.o(i._printf_core) for _printf_core
    printf8.o(i.__0printf$8) refers to fputc.o(i.fputc) for fputc
    printf8.o(i.__0printf$8) refers to stdout.o(.data) for __stdout
    printf8.o(i.__0snprintf$8) refers to printf8.o(i._printf_core) for _printf_core
    printf8.o(i.__0snprintf$8) refers to printf8.o(i._snputc) for _snputc
    printf8.o(i.__0sprintf$8) refers to printf8.o(i._printf_core) for _printf_core
    printf8.o(i.__0sprintf$8) refers to printf8.o(i._sputc) for _sputc
    printf8.o(i.__0vfprintf$8) refers to printf8.o(i._printf_core) for _printf_core
    printf8.o(i.__0vfprintf$8) refers to fputc.o(i.fputc) for fputc
    printf8.o(i.__0vprintf$8) refers to printf8.o(i._printf_core) for _printf_core
    printf8.o(i.__0vprintf$8) refers to fputc.o(i.fputc) for fputc
    printf8.o(i.__0vprintf$8) refers to stdout.o(.data) for __stdout
    printf8.o(i.__0vsnprintf$8) refers to printf8.o(i._printf_core) for _printf_core
    printf8.o(i.__0vsnprintf$8) refers to printf8.o(i._snputc) for _snputc
    printf8.o(i.__0vsprintf$8) refers to printf8.o(i._printf_core) for _printf_core
    printf8.o(i.__0vsprintf$8) refers to printf8.o(i._sputc) for _sputc
    printf8.o(i._printf_core) refers to printf8.o(i._printf_pre_padding) for _printf_pre_padding
    printf8.o(i._printf_core) refers to uldiv.o(.text) for __aeabi_uldivmod
    printf8.o(i._printf_core) refers to printf8.o(i._printf_post_padding) for _printf_post_padding
    printfa.o(i.__0fprintf) refers (Special) to iusefp.o(.text) for __I$use$fp
    printfa.o(i.__0fprintf) refers to printfa.o(i._printf_core) for _printf_core
    printfa.o(i.__0fprintf) refers to fputc.o(i.fputc) for fputc
    printfa.o(i.__0printf) refers (Special) to iusefp.o(.text) for __I$use$fp
    printfa.o(i.__0printf) refers to printfa.o(i._printf_core) for _printf_core
    printfa.o(i.__0printf) refers to fputc.o(i.fputc) for fputc
    printfa.o(i.__0printf) refers to stdout.o(.data) for __stdout
    printfa.o(i.__0snprintf) refers (Special) to iusefp.o(.text) for __I$use$fp
    printfa.o(i.__0snprintf) refers to printfa.o(i._printf_core) for _printf_core
    printfa.o(i.__0snprintf) refers to printfa.o(i._snputc) for _snputc
    printfa.o(i.__0sprintf) refers (Special) to iusefp.o(.text) for __I$use$fp
    printfa.o(i.__0sprintf) refers to printfa.o(i._printf_core) for _printf_core
    printfa.o(i.__0sprintf) refers to printfa.o(i._sputc) for _sputc
    printfa.o(i.__0vfprintf) refers (Special) to iusefp.o(.text) for __I$use$fp
    printfa.o(i.__0vfprintf) refers to printfa.o(i._printf_core) for _printf_core
    printfa.o(i.__0vfprintf) refers to fputc.o(i.fputc) for fputc
    printfa.o(i.__0vprintf) refers (Special) to iusefp.o(.text) for __I$use$fp
    printfa.o(i.__0vprintf) refers to printfa.o(i._printf_core) for _printf_core
    printfa.o(i.__0vprintf) refers to fputc.o(i.fputc) for fputc
    printfa.o(i.__0vprintf) refers to stdout.o(.data) for __stdout
    printfa.o(i.__0vsnprintf) refers (Special) to iusefp.o(.text) for __I$use$fp
    printfa.o(i.__0vsnprintf) refers to printfa.o(i._printf_core) for _printf_core
    printfa.o(i.__0vsnprintf) refers to printfa.o(i._snputc) for _snputc
    printfa.o(i.__0vsprintf) refers (Special) to iusefp.o(.text) for __I$use$fp
    printfa.o(i.__0vsprintf) refers to printfa.o(i._printf_core) for _printf_core
    printfa.o(i.__0vsprintf) refers to printfa.o(i._sputc) for _sputc
    printfa.o(i._fp_digits) refers (Special) to iusefp.o(.text) for __I$use$fp
    printfa.o(i._fp_digits) refers to dmul.o(.text) for __aeabi_dmul
    printfa.o(i._fp_digits) refers to ddiv.o(.text) for __aeabi_ddiv
    printfa.o(i._fp_digits) refers to cdrcmple.o(.text) for __aeabi_cdrcmple
    printfa.o(i._fp_digits) refers to dadd.o(.text) for __aeabi_dadd
    printfa.o(i._fp_digits) refers to dfixul.o(.text) for __aeabi_d2ulz
    printfa.o(i._fp_digits) refers to uldiv.o(.text) for __aeabi_uldivmod
    printfa.o(i._printf_core) refers (Special) to iusefp.o(.text) for __I$use$fp
    printfa.o(i._printf_core) refers to printfa.o(i._printf_pre_padding) for _printf_pre_padding
    printfa.o(i._printf_core) refers to uldiv.o(.text) for __aeabi_uldivmod
    printfa.o(i._printf_core) refers to printfa.o(i._printf_post_padding) for _printf_post_padding
    printfa.o(i._printf_core) refers to printfa.o(i._fp_digits) for _fp_digits
    printfa.o(i._printf_core) refers to uidiv.o(.text) for __aeabi_uidivmod
    printfa.o(i._printf_post_padding) refers (Special) to iusefp.o(.text) for __I$use$fp
    printfa.o(i._printf_pre_padding) refers (Special) to iusefp.o(.text) for __I$use$fp
    printfa.o(i._snputc) refers (Special) to iusefp.o(.text) for __I$use$fp
    printfa.o(i._sputc) refers (Special) to iusefp.o(.text) for __I$use$fp
    dmul.o(.text) refers (Special) to iusefp.o(.text) for __I$use$fp
    dmul.o(.text) refers to depilogue.o(.text) for _double_epilogue
    ddiv.o(.text) refers (Special) to iusefp.o(.text) for __I$use$fp
    ddiv.o(.text) refers to depilogue.o(.text) for _double_round
    dflti.o(.text) refers (Special) to iusefp.o(.text) for __I$use$fp
    dflti.o(.text) refers to depilogue.o(.text) for _double_epilogue
    dfixi.o(.text) refers (Special) to iusefp.o(.text) for __I$use$fp
    dfixi.o(.text) refers to llushr.o(.text) for __aeabi_llsr
    dunder.o(i.__mathlib_dbl_divzero) refers to ddiv.o(.text) for __aeabi_ddiv
    dunder.o(i.__mathlib_dbl_infnan) refers to dscalb.o(.text) for __ARM_scalbn
    dunder.o(i.__mathlib_dbl_infnan2) refers to dadd.o(.text) for __aeabi_dadd
    dunder.o(i.__mathlib_dbl_invalid) refers to ddiv.o(.text) for __aeabi_ddiv
    dunder.o(i.__mathlib_dbl_overflow) refers to dscalb.o(.text) for __ARM_scalbn
    dunder.o(i.__mathlib_dbl_posinfnan) refers to dmul.o(.text) for __aeabi_dmul
    dunder.o(i.__mathlib_dbl_underflow) refers to dscalb.o(.text) for __ARM_scalbn
    log.o(i.__softfp_log) refers (Special) to iusefp.o(.text) for __I$use$fp
    log.o(i.__softfp_log) refers to log.o(i.log) for log
    log.o(i.log) refers (Special) to iusefp.o(.text) for __I$use$fp
    log.o(i.log) refers to dunder.o(i.__mathlib_dbl_infnan) for __mathlib_dbl_infnan
    log.o(i.log) refers to errno.o(i.__set_errno) for __set_errno
    log.o(i.log) refers to dunder.o(i.__mathlib_dbl_invalid) for __mathlib_dbl_invalid
    log.o(i.log) refers to dunder.o(i.__mathlib_dbl_divzero) for __mathlib_dbl_divzero
    log.o(i.log) refers to dscalb.o(.text) for __ARM_scalbn
    log.o(i.log) refers to dadd.o(.text) for __aeabi_dsub
    log.o(i.log) refers to cdcmple.o(.text) for __aeabi_cdcmpeq
    log.o(i.log) refers to dflti.o(.text) for __aeabi_i2d
    log.o(i.log) refers to dmul.o(.text) for __aeabi_dmul
    log.o(i.log) refers to ddiv.o(.text) for __aeabi_ddiv
    log.o(i.log) refers to poly.o(i.__kernel_poly) for __kernel_poly
    log.o(i.log) refers to qnan.o(.constdata) for __mathlib_zero
    log.o(i.log) refers to log.o(.constdata) for .constdata
    log.o(.constdata) refers (Special) to iusefp.o(.text) for __I$use$fp
    log_x.o(i.____softfp_log$lsc) refers (Special) to iusefp.o(.text) for __I$use$fp
    log_x.o(i.____softfp_log$lsc) refers to log_x.o(i.__log$lsc) for __log$lsc
    log_x.o(i.__log$lsc) refers (Special) to iusefp.o(.text) for __I$use$fp
    log_x.o(i.__log$lsc) refers to dunder.o(i.__mathlib_dbl_infnan) for __mathlib_dbl_infnan
    log_x.o(i.__log$lsc) refers to errno.o(i.__set_errno) for __set_errno
    log_x.o(i.__log$lsc) refers to dscalb.o(.text) for __ARM_scalbn
    log_x.o(i.__log$lsc) refers to dadd.o(.text) for __aeabi_dsub
    log_x.o(i.__log$lsc) refers to cdcmple.o(.text) for __aeabi_cdcmpeq
    log_x.o(i.__log$lsc) refers to dflti.o(.text) for __aeabi_i2d
    log_x.o(i.__log$lsc) refers to dmul.o(.text) for __aeabi_dmul
    log_x.o(i.__log$lsc) refers to ddiv.o(.text) for __aeabi_ddiv
    log_x.o(i.__log$lsc) refers to poly.o(i.__kernel_poly) for __kernel_poly
    log_x.o(i.__log$lsc) refers to qnan.o(.constdata) for __mathlib_zero
    log_x.o(i.__log$lsc) refers to log_x.o(.constdata) for .constdata
    log_x.o(.constdata) refers (Special) to iusefp.o(.text) for __I$use$fp
    entry2.o(.ARM.Collect$$$$00000001) refers to entry2.o(.ARM.Collect$$$$00002712) for __lit__00000000
    entry2.o(.ARM.Collect$$$$00002712) refers to startup_stm32f2xx.o(STACK) for __initial_sp
    entry2.o(__vectab_stack_and_reset_area) refers to startup_stm32f2xx.o(STACK) for __initial_sp
    entry2.o(__vectab_stack_and_reset_area) refers to entry.o(.ARM.Collect$$$$00000000) for __main
    entry5.o(.ARM.Collect$$$$00000004) refers to init.o(.text) for __scatterload
    entry9a.o(.ARM.Collect$$$$0000000B) refers to main.o(.text) for main
    entry9b.o(.ARM.Collect$$$$0000000C) refers to main.o(.text) for main
    fputc.o(i.fputc) refers (Special) to iusesemip.o(.text) for __I$use$semihosting$fputc
    fputc.o(i.fputc) refers (Special) to semi.o(.text) for __semihosting_library_function
    uldiv.o(.text) refers to llushr.o(.text) for __aeabi_llsr
    uldiv.o(.text) refers to llshl.o(.text) for __aeabi_llsl
    errno.o(i.__aeabi_errno_addr) refers to errno.o(.data) for .data
    errno.o(i.__read_errno) refers to errno.o(.data) for .data
    errno.o(i.__set_errno) refers to errno.o(.data) for .data
    depilogue.o(.text) refers to llshl.o(.text) for __aeabi_llsl
    depilogue.o(.text) refers to llushr.o(.text) for __aeabi_llsr
    dadd.o(.text) refers to llshl.o(.text) for __aeabi_llsl
    dadd.o(.text) refers to llsshr.o(.text) for __aeabi_lasr
    dadd.o(.text) refers to depilogue.o(.text) for _double_epilogue
    dfixul.o(.text) refers to llushr.o(.text) for __aeabi_llsr
    dfixul.o(.text) refers to llshl.o(.text) for __aeabi_llsl
    poly.o(i.__kernel_poly) refers (Special) to iusefp.o(.text) for __I$use$fp
    poly.o(i.__kernel_poly) refers to dmul.o(.text) for __aeabi_dmul
    poly.o(i.__kernel_poly) refers to dadd.o(.text) for __aeabi_dadd
    qnan.o(.constdata) refers (Special) to iusefp.o(.text) for __I$use$fp
    init.o(.text) refers to entry5.o(.ARM.Collect$$$$00000004) for __main_after_scatterload


==============================================================================

Removing Unused input sections from the image.

    Removing myboard.o(.data), (1 bytes).
    Removing myswitch.o(.text), (124 bytes).
    Removing myhttpd.o(.data), (256 bytes).
    Removing stm32f2xx_dbgmcu.o(.text), (100 bytes).
    Removing stm32f2xx_exti.o(.text), (284 bytes).
    Removing stm32f2xx_pwr.o(.text), (216 bytes).
    Removing stm32f2xx_tim.o(.text), (3234 bytes).
    Removing stm32f2xx_usart.o(.text), (1050 bytes).
    Removing stm32f2xx_iwdg.o(.text), (64 bytes).
    Removing startup_stm32f2xx.o(HEAP), (4096 bytes).
    Removing core_cm3.o(.emb_text), (32 bytes).
    Removing init.o(.text), (16 bytes).
    Removing dfixul.o(.text), (48 bytes).
    Removing cdrcmple.o(.text), (48 bytes).

14 unused section(s) (total 9569 bytes) removed from the image.

==============================================================================

Adding Veneers to the image

    Adding TT veneer (10 bytes, Long) for call to 'ram_function' from myapp.o(.text).
    Adding TT veneer (10 bytes, Long) for call to 'ram_flash_copy' from myflash.o(.text).

2 Veneer(s) (total 20 bytes) added to the image.

==============================================================================

Image Symbol Table

    Local Symbols

    Symbol Name                              Value     Ov Type        Size  Object(Section)

    ../clib/../cmprslib/zerorunl2.c          0x00000000   Number         0  __dczerorl2.o ABSOLUTE
    ../clib/microlib/division.c              0x00000000   Number         0  uldiv.o ABSOLUTE
    ../clib/microlib/division.c              0x00000000   Number         0  uidiv.o ABSOLUTE
    ../clib/microlib/errno.c                 0x00000000   Number         0  errno.o ABSOLUTE
    ../clib/microlib/init/entry.s            0x00000000   Number         0  entry8a.o ABSOLUTE
    ../clib/microlib/init/entry.s            0x00000000   Number         0  entry8b.o ABSOLUTE
    ../clib/microlib/init/entry.s            0x00000000   Number         0  entry9b.o ABSOLUTE
    ../clib/microlib/init/entry.s            0x00000000   Number         0  entry10a.o ABSOLUTE
    ../clib/microlib/init/entry.s            0x00000000   Number         0  entry10b.o ABSOLUTE
    ../clib/microlib/init/entry.s            0x00000000   Number         0  entry11a.o ABSOLUTE
    ../clib/microlib/init/entry.s            0x00000000   Number         0  entry9a.o ABSOLUTE
    ../clib/microlib/init/entry.s            0x00000000   Number         0  entry11b.o ABSOLUTE
    ../clib/microlib/init/entry.s            0x00000000   Number         0  entry2.o ABSOLUTE
    ../clib/microlib/init/entry.s            0x00000000   Number         0  entry.o ABSOLUTE
    ../clib/microlib/init/entry.s            0x00000000   Number         0  entry5.o ABSOLUTE
    ../clib/microlib/init/entry.s            0x00000000   Number         0  entry7a.o ABSOLUTE
    ../clib/microlib/init/entry.s            0x00000000   Number         0  entry7b.o ABSOLUTE
    ../clib/microlib/longlong.c              0x00000000   Number         0  llsshr.o ABSOLUTE
    ../clib/microlib/longlong.c              0x00000000   Number         0  llshl.o ABSOLUTE
    ../clib/microlib/longlong.c              0x00000000   Number         0  llushr.o ABSOLUTE
    ../clib/microlib/printf/printf.c         0x00000000   Number         0  printf4.o ABSOLUTE
    ../clib/microlib/printf/printf.c         0x00000000   Number         0  printf3.o ABSOLUTE
    ../clib/microlib/printf/printf.c         0x00000000   Number         0  printf5.o ABSOLUTE
    ../clib/microlib/printf/printf.c         0x00000000   Number         0  printf0.o ABSOLUTE
    ../clib/microlib/printf/printf.c         0x00000000   Number         0  printf1.o ABSOLUTE
    ../clib/microlib/printf/printf.c         0x00000000   Number         0  printfb.o ABSOLUTE
    ../clib/microlib/printf/printf.c         0x00000000   Number         0  printf2.o ABSOLUTE
    ../clib/microlib/printf/printf.c         0x00000000   Number         0  printf7.o ABSOLUTE
    ../clib/microlib/printf/printf.c         0x00000000   Number         0  printfa.o ABSOLUTE
    ../clib/microlib/printf/printf.c         0x00000000   Number         0  printf6.o ABSOLUTE
    ../clib/microlib/printf/printf.c         0x00000000   Number         0  printf8.o ABSOLUTE
    ../clib/microlib/printf/stubs.s          0x00000000   Number         0  stubs.o ABSOLUTE
    ../clib/microlib/stdio/fputc.c           0x00000000   Number         0  fputc.o ABSOLUTE
    ../clib/microlib/stdio/semi.s            0x00000000   Number         0  semi.o ABSOLUTE
    ../clib/microlib/stdio/streams.c         0x00000000   Number         0  stdout.o ABSOLUTE
    ../clib/microlib/string/memcmp.c         0x00000000   Number         0  memcmp.o ABSOLUTE
    ../clib/microlib/string/memcpy.c         0x00000000   Number         0  memcpya.o ABSOLUTE
    ../clib/microlib/string/memcpy.c         0x00000000   Number         0  memcpyb.o ABSOLUTE
    ../clib/microlib/string/memset.c         0x00000000   Number         0  memseta.o ABSOLUTE
    ../clib/microlib/string/strcmp.c         0x00000000   Number         0  strcmp.o ABSOLUTE
    ../clib/microlib/string/strlen.c         0x00000000   Number         0  strlen.o ABSOLUTE
    ../clib/microlib/string/strncmp.c        0x00000000   Number         0  strncmp.o ABSOLUTE
    ../clib/microlib/stubs.s                 0x00000000   Number         0  iusefp.o ABSOLUTE
    ../clib/microlib/stubs.s                 0x00000000   Number         0  iusesemip.o ABSOLUTE
    ../fplib/microlib/fpadd.c                0x00000000   Number         0  dadd.o ABSOLUTE
    ../fplib/microlib/fpdiv.c                0x00000000   Number         0  ddiv.o ABSOLUTE
    ../fplib/microlib/fpepilogue.c           0x00000000   Number         0  depilogue.o ABSOLUTE
    ../fplib/microlib/fpfix.c                0x00000000   Number         0  dfixul.o ABSOLUTE
    ../fplib/microlib/fpfix.c                0x00000000   Number         0  dfixi.o ABSOLUTE
    ../fplib/microlib/fpflt.c                0x00000000   Number         0  dflti.o ABSOLUTE
    ../fplib/microlib/fpmul.c                0x00000000   Number         0  dmul.o ABSOLUTE
    ../fplib/microlib/fpscalb.c              0x00000000   Number         0  dscalb.o ABSOLUTE
    ../mathlib/dunder.c                      0x00000000   Number         0  dunder.o ABSOLUTE
    ../mathlib/log.c                         0x00000000   Number         0  log.o ABSOLUTE
    ../mathlib/log.c                         0x00000000   Number         0  log_x.o ABSOLUTE
    ../mathlib/log10.c                       0x00000000   Number         0  log10.o ABSOLUTE
    ../mathlib/log10.c                       0x00000000   Number         0  log10_x.o ABSOLUTE
    ../mathlib/poly.c                        0x00000000   Number         0  poly.o ABSOLUTE
    ../mathlib/qnan.c                        0x00000000   Number         0  qnan.o ABSOLUTE
    cdcmple.s                                0x00000000   Number         0  cdcmple.o ABSOLUTE
    cdrcmple.s                               0x00000000   Number         0  cdrcmple.o ABSOLUTE
    dc.s                                     0x00000000   Number         0  dc.o ABSOLUTE
    eth_driver\stm32f2x7_eth.c               0x00000000   Number         0  stm32f2x7_eth.o ABSOLUTE
    handlers.s                               0x00000000   Number         0  handlers.o ABSOLUTE
    init.s                                   0x00000000   Number         0  init.o ABSOLUTE
    library\src\misc.c                       0x00000000   Number         0  misc.o ABSOLUTE
    library\src\stm32f2xx_adc.c              0x00000000   Number         0  stm32f2xx_adc.o ABSOLUTE
    library\src\stm32f2xx_dbgmcu.c           0x00000000   Number         0  stm32f2xx_dbgmcu.o ABSOLUTE
    library\src\stm32f2xx_dma.c              0x00000000   Number         0  stm32f2xx_dma.o ABSOLUTE
    library\src\stm32f2xx_exti.c             0x00000000   Number         0  stm32f2xx_exti.o ABSOLUTE
    library\src\stm32f2xx_flash.c            0x00000000   Number         0  stm32f2xx_flash.o ABSOLUTE
    library\src\stm32f2xx_gpio.c             0x00000000   Number         0  stm32f2xx_gpio.o ABSOLUTE
    library\src\stm32f2xx_i2c.c              0x00000000   Number         0  stm32f2xx_i2c.o ABSOLUTE
    library\src\stm32f2xx_iwdg.c             0x00000000   Number         0  stm32f2xx_iwdg.o ABSOLUTE
    library\src\stm32f2xx_pwr.c              0x00000000   Number         0  stm32f2xx_pwr.o ABSOLUTE
    library\src\stm32f2xx_rcc.c              0x00000000   Number         0  stm32f2xx_rcc.o ABSOLUTE
    library\src\stm32f2xx_spi.c              0x00000000   Number         0  stm32f2xx_spi.o ABSOLUTE
    library\src\stm32f2xx_syscfg.c           0x00000000   Number         0  stm32f2xx_syscfg.o ABSOLUTE
    library\src\stm32f2xx_tim.c              0x00000000   Number         0  stm32f2xx_tim.o ABSOLUTE
    library\src\stm32f2xx_usart.c            0x00000000   Number         0  stm32f2xx_usart.o ABSOLUTE
    library\src\stm32f2xx_wwdg.c             0x00000000   Number         0  stm32f2xx_wwdg.o ABSOLUTE
    lwip_v1.3.2\port\STM32F2x7\Standalone\ethernetif.c 0x00000000   Number         0  ethernetif.o ABSOLUTE
    lwip_v1.3.2\src\api\api_lib.c            0x00000000   Number         0  api_lib.o ABSOLUTE
    lwip_v1.3.2\src\api\api_msg.c            0x00000000   Number         0  api_msg.o ABSOLUTE
    lwip_v1.3.2\src\api\err.c                0x00000000   Number         0  err.o ABSOLUTE
    lwip_v1.3.2\src\api\netbuf.c             0x00000000   Number         0  netbuf.o ABSOLUTE
    lwip_v1.3.2\src\api\netdb.c              0x00000000   Number         0  netdb.o ABSOLUTE
    lwip_v1.3.2\src\api\netifapi.c           0x00000000   Number         0  netifapi.o ABSOLUTE
    lwip_v1.3.2\src\api\sockets.c            0x00000000   Number         0  sockets.o ABSOLUTE
    lwip_v1.3.2\src\api\tcpip.c              0x00000000   Number         0  tcpip.o ABSOLUTE
    lwip_v1.3.2\src\core\dhcp.c              0x00000000   Number         0  dhcp.o ABSOLUTE
    lwip_v1.3.2\src\core\init.c              0x00000000   Number         0  init.o ABSOLUTE
    lwip_v1.3.2\src\core\ipv4\autoip.c       0x00000000   Number         0  autoip.o ABSOLUTE
    lwip_v1.3.2\src\core\ipv4\icmp.c         0x00000000   Number         0  icmp.o ABSOLUTE
    lwip_v1.3.2\src\core\ipv4\igmp.c         0x00000000   Number         0  igmp.o ABSOLUTE
    lwip_v1.3.2\src\core\ipv4\inet.c         0x00000000   Number         0  inet.o ABSOLUTE
    lwip_v1.3.2\src\core\ipv4\inet_chksum.c  0x00000000   Number         0  inet_chksum.o ABSOLUTE
    lwip_v1.3.2\src\core\ipv4\ip.c           0x00000000   Number         0  ip.o ABSOLUTE
    lwip_v1.3.2\src\core\ipv4\ip_addr.c      0x00000000   Number         0  ip_addr.o ABSOLUTE
    lwip_v1.3.2\src\core\ipv4\ip_frag.c      0x00000000   Number         0  ip_frag.o ABSOLUTE
    lwip_v1.3.2\src\core\mem.c               0x00000000   Number         0  mem.o ABSOLUTE
    lwip_v1.3.2\src\core\memp.c              0x00000000   Number         0  memp.o ABSOLUTE
    lwip_v1.3.2\src\core\netif.c             0x00000000   Number         0  netif.o ABSOLUTE
    lwip_v1.3.2\src\core\pbuf.c              0x00000000   Number         0  pbuf.o ABSOLUTE
    lwip_v1.3.2\src\core\raw.c               0x00000000   Number         0  raw.o ABSOLUTE
    lwip_v1.3.2\src\core\stats.c             0x00000000   Number         0  stats.o ABSOLUTE
    lwip_v1.3.2\src\core\sys.c               0x00000000   Number         0  sys.o ABSOLUTE
    lwip_v1.3.2\src\core\tcp.c               0x00000000   Number         0  tcp.o ABSOLUTE
    lwip_v1.3.2\src\core\tcp_in.c            0x00000000   Number         0  tcp_in.o ABSOLUTE
    lwip_v1.3.2\src\core\tcp_out.c           0x00000000   Number         0  tcp_out.o ABSOLUTE
    lwip_v1.3.2\src\core\udp.c               0x00000000   Number         0  udp.o ABSOLUTE
    lwip_v1.3.2\src\netif\etharp.c           0x00000000   Number         0  etharp.o ABSOLUTE
    lwip_v1.3.2\src\netif\loopif.c           0x00000000   Number         0  loopif.o ABSOLUTE
    lwip_v1.3.2\src\netif\slipif.c           0x00000000   Number         0  slipif.o ABSOLUTE
    mycode\MyAdc.c                           0x00000000   Number         0  myadc.o ABSOLUTE
    mycode\MyApp.c                           0x00000000   Number         0  myapp.o ABSOLUTE
    mycode\MyAudio.c                         0x00000000   Number         0  myaudio.o ABSOLUTE
    mycode\MyAudioSample.c                   0x00000000   Number         0  myaudiosample.o ABSOLUTE
    mycode\MyBoard.c                         0x00000000   Number         0  myboard.o ABSOLUTE
    mycode\MyCommander.c                     0x00000000   Number         0  mycommander.o ABSOLUTE
    mycode\MyEthernet.c                      0x00000000   Number         0  myethernet.o ABSOLUTE
    mycode\MyFlash.c                         0x00000000   Number         0  myflash.o ABSOLUTE
    mycode\MyHttpd.c                         0x00000000   Number         0  myhttpd.o ABSOLUTE
    mycode\MyI2c.c                           0x00000000   Number         0  myi2c.o ABSOLUTE
    mycode\MyI2s.c                           0x00000000   Number         0  myi2s.o ABSOLUTE
    mycode\MyKey.c                           0x00000000   Number         0  mykey.o ABSOLUTE
    mycode\MyLwip.c                          0x00000000   Number         0  mylwip.o ABSOLUTE
    mycode\MyMiscFunc.c                      0x00000000   Number         0  mymiscfunc.o ABSOLUTE
    mycode\MyNet.c                           0x00000000   Number         0  mynet.o ABSOLUTE
    mycode\MyNoise.c                         0x00000000   Number         0  mynoise.o ABSOLUTE
    mycode\MyProtocol.c                      0x00000000   Number         0  myprotocol.o ABSOLUTE
    mycode\MyRamFunc.c                       0x00000000   Number         0  myramfunc.o ABSOLUTE
    mycode\MySelfTest.c                      0x00000000   Number         0  myselftest.o ABSOLUTE
    mycode\MyStorage.c                       0x00000000   Number         0  mystorage.o ABSOLUTE
    mycode\MySwitch.c                        0x00000000   Number         0  myswitch.o ABSOLUTE
    mycode\MyTftpClient.c                    0x00000000   Number         0  mytftpclient.o ABSOLUTE
    mycode\MyTimer.c                         0x00000000   Number         0  mytimer.o ABSOLUTE
    mycode\main.c                            0x00000000   Number         0  main.o ABSOLUTE
    mycode\soundcard.c                       0x00000000   Number         0  soundcard.o ABSOLUTE
    mycode\stm32f2xx_it.c                    0x00000000   Number         0  stm32f2xx_it.o ABSOLUTE
    stm32f207core\\core_cm3.c                0x00000000   Number         0  core_cm3.o ABSOLUTE
    stm32f207core\core_cm3.c                 0x00000000   Number         0  core_cm3.o ABSOLUTE
    stm32f207core\startup_stm32f2xx.s        0x00000000   Number         0  startup_stm32f2xx.o ABSOLUTE
    stm32f207core\system_stm32f2xx.c         0x00000000   Number         0  system_stm32f2xx.o ABSOLUTE
    RESET                                    0x08000000   Section      388  startup_stm32f2xx.o(RESET)
    .ARM.Collect$$$$00000000                 0x08000184   Section        0  entry.o(.ARM.Collect$$$$00000000)
    .ARM.Collect$$$$00000001                 0x08000184   Section        4  entry2.o(.ARM.Collect$$$$00000001)
    .ARM.Collect$$$$00000004                 0x08000188   Section        4  entry5.o(.ARM.Collect$$$$00000004)
    .ARM.Collect$$$$00000008                 0x0800018c   Section        0  entry7b.o(.ARM.Collect$$$$00000008)
    .ARM.Collect$$$$0000000A                 0x0800018c   Section        0  entry8b.o(.ARM.Collect$$$$0000000A)
    .ARM.Collect$$$$0000000B                 0x0800018c   Section        8  entry9a.o(.ARM.Collect$$$$0000000B)
    .ARM.Collect$$$$0000000D                 0x08000194   Section        0  entry10a.o(.ARM.Collect$$$$0000000D)
    .ARM.Collect$$$$0000000F                 0x08000194   Section        0  entry11a.o(.ARM.Collect$$$$0000000F)
    .ARM.Collect$$$$00002712                 0x08000194   Section        4  entry2.o(.ARM.Collect$$$$00002712)
    __lit__00000000                          0x08000194   Data           4  entry2.o(.ARM.Collect$$$$00002712)
    .text                                    0x08000198   Section        0  main.o(.text)
    .text                                    0x08000350   Section        0  myapp.o(.text)
    .text                                    0x08000b48   Section        0  myboard.o(.text)
    .text                                    0x080013f0   Section        0  mymiscfunc.o(.text)
    .text                                    0x080016f0   Section        0  mynet.o(.text)
    .text                                    0x08002344   Section        0  myethernet.o(.text)
    .text                                    0x080024ac   Section        0  stm32f2xx_it.o(.text)
    .text                                    0x080024d8   Section        0  mytimer.o(.text)
    .text                                    0x08002678   Section        0  mylwip.o(.text)
    .text                                    0x08002ce0   Section        0  myi2c.o(.text)
    .text                                    0x080037b4   Section        0  myi2s.o(.text)
    .text                                    0x08003eec   Section        0  myaudio.o(.text)
    .text                                    0x08004c4c   Section        0  myprotocol.o(.text)
    .text                                    0x080052f4   Section        0  myhttpd.o(.text)
    http_state_alloc                         0x080052f5   Thumb Code    24  myhttpd.o(.text)
    http_err                                 0x0800530d   Thumb Code    18  myhttpd.o(.text)
    http_close_conn                          0x0800531f   Thumb Code    52  myhttpd.o(.text)
    http_send_data                           0x08005353   Thumb Code    60  myhttpd.o(.text)
    http_sent                                0x0800538f   Thumb Code    36  myhttpd.o(.text)
    http_poll                                0x080053b3   Thumb Code    28  myhttpd.o(.text)
    HttpRecv                                 0x08005681   Thumb Code   288  myhttpd.o(.text)
    HttpAccept                               0x080057a1   Thumb Code   330  myhttpd.o(.text)
    .text                                    0x080059a4   Section        0  myflash.o(.text)
    .text                                    0x08005abc   Section        0  mystorage.o(.text)
    .text                                    0x08005bd0   Section        0  mycommander.o(.text)
    .text                                    0x0800676c   Section        0  myadc.o(.text)
    .text                                    0x0800695c   Section        0  mykey.o(.text)
    .text                                    0x08006b08   Section        0  myselftest.o(.text)
    .text                                    0x08006f24   Section        0  mytftpclient.o(.text)
    .text                                    0x08007240   Section        0  mynoise.o(.text)
    .text                                    0x080076bc   Section        0  soundcard.o(.text)
    SGTL5000_i2c_init                        0x080076bd   Thumb Code    58  soundcard.o(.text)
    SGTL5000_i2c_write                       0x080076f7   Thumb Code   484  soundcard.o(.text)
    SGTL5000_Init                            0x080078db   Thumb Code   132  soundcard.o(.text)
    SGTL5000_set_output_vol                  0x0800795f   Thumb Code    36  soundcard.o(.text)
    SGTL5000_set_input_vol                   0x08007983   Thumb Code    30  soundcard.o(.text)
    SGTL5000_i2c_read                        0x080079a1   Thumb Code   652  soundcard.o(.text)
    .text                                    0x08007e8c   Section        0  misc.o(.text)
    .text                                    0x08007f6c   Section        0  stm32f2xx_dma.o(.text)
    .text                                    0x08008314   Section        0  stm32f2xx_flash.o(.text)
    .text                                    0x080087d0   Section        0  stm32f2xx_gpio.o(.text)
    .text                                    0x08008a2c   Section        0  stm32f2xx_i2c.o(.text)
    .text                                    0x08008e54   Section        0  stm32f2xx_rcc.o(.text)
    .text                                    0x080093dc   Section        0  stm32f2xx_spi.o(.text)
    .text                                    0x08009740   Section        0  stm32f2xx_syscfg.o(.text)
    .text                                    0x080097cc   Section        0  stm32f2xx_adc.o(.text)
    .text                                    0x08009c30   Section        0  stm32f2xx_wwdg.o(.text)
    .text                                    0x08009cc0   Section       36  startup_stm32f2xx.o(.text)
    .text                                    0x08009ce4   Section        0  system_stm32f2xx.o(.text)
    SetSysClock                              0x08009ce5   Thumb Code   192  system_stm32f2xx.o(.text)
    .text                                    0x08009ec4   Section        0  stm32f2x7_eth.o(.text)
    ETH_Delay                                0x08009ec5   Thumb Code    28  stm32f2x7_eth.o(.text)
    .text                                    0x0800ac48   Section        0  mem.o(.text)
    plug_holes                               0x0800ac49   Thumb Code   124  mem.o(.text)
    .text                                    0x0800af94   Section        0  memp.o(.text)
    .text                                    0x0800b03c   Section        0  netif.o(.text)
    .text                                    0x0800b240   Section        0  pbuf.o(.text)
    .text                                    0x0800b7dc   Section        0  raw.o(.text)
    .text                                    0x0800b97c   Section        0  tcp.o(.text)
    tcp_new_port                             0x0800c03b   Thumb Code   104  tcp.o(.text)
    tcp_accept_null                          0x0800c187   Thumb Code     8  tcp.o(.text)
    tcp_kill_prio                            0x0800c3c9   Thumb Code    78  tcp.o(.text)
    tcp_kill_timewait                        0x0800c417   Thumb Code    52  tcp.o(.text)
    .text                                    0x0800c54c   Section        0  tcp_in.o(.text)
    tcp_receive                              0x0800c54d   Thumb Code  1562  tcp_in.o(.text)
    tcp_parseopt                             0x0800cb67   Thumb Code   178  tcp_in.o(.text)
    tcp_process                              0x0800cc19   Thumb Code  1380  tcp_in.o(.text)
    tcp_listen_input                         0x0800d17d   Thumb Code   322  tcp_in.o(.text)
    tcp_timewait_input                       0x0800d2bf   Thumb Code   150  tcp_in.o(.text)
    .text                                    0x0800d7e0   Section        0  tcp_out.o(.text)
    tcp_output_set_header                    0x0800d7e1   Thumb Code   138  tcp_out.o(.text)
    tcp_output_segment                       0x0800dd23   Thumb Code   194  tcp_out.o(.text)
    .text                                    0x0800e270   Section        0  udp.o(.text)
    .text                                    0x0800e650   Section        0  autoip.o(.text)
    autoip_start_probing                     0x0800e653   Thumb Code    80  autoip.o(.text)
    autoip_create_addr                       0x0800e6a3   Thumb Code    86  autoip.o(.text)
    autoip_arp_announce                      0x0800e759   Thumb Code    36  autoip.o(.text)
    autoip_handle_arp_conflict               0x0800e77d   Thumb Code    46  autoip.o(.text)
    autoip_arp_probe                         0x0800e7ab   Thumb Code    38  autoip.o(.text)
    autoip_bind                              0x0800e7d1   Thumb Code    56  autoip.o(.text)
    .text                                    0x0800ea10   Section        0  icmp.o(.text)
    icmp_send_response                       0x0800eb81   Thumb Code   108  icmp.o(.text)
    .text                                    0x0800ec10   Section        0  inet.o(.text)
    .text                                    0x0800ee2c   Section        0  inet_chksum.o(.text)
    lwip_standard_chksum                     0x0800ee2d   Thumb Code    74  inet_chksum.o(.text)
    .text                                    0x0800ef84   Section        0  ip.o(.text)
    .text                                    0x0800f298   Section        0  ip_addr.o(.text)
    .text                                    0x0800f2e8   Section        0  ip_frag.o(.text)
    ip_reass_dequeue_datagram                0x0800f2e9   Thumb Code    40  ip_frag.o(.text)
    ip_reass_free_complete_datagram          0x0800f311   Thumb Code   130  ip_frag.o(.text)
    ip_reass_remove_oldest_datagram          0x0800f3c3   Thumb Code   118  ip_frag.o(.text)
    ip_reass_enqueue_new_datagram            0x0800f439   Thumb Code    80  ip_frag.o(.text)
    ip_reass_chain_frag_into_datagram_and_validate 0x0800f489   Thumb Code   354  ip_frag.o(.text)
    .text                                    0x0800f8d4   Section        0  etharp.o(.text)
    free_etharp_q                            0x0800f8d5   Thumb Code    42  etharp.o(.text)
    find_entry                               0x0800f999   Thumb Code   482  etharp.o(.text)
    etharp_send_ip                           0x0800fb7b   Thumb Code    66  etharp.o(.text)
    update_arp_entry                         0x0800fbbd   Thumb Code   232  etharp.o(.text)
    .text                                    0x08010234   Section        0  ethernetif.o(.text)
    low_level_init                           0x08010235   Thumb Code   130  ethernetif.o(.text)
    low_level_output                         0x080102b7   Thumb Code    52  ethernetif.o(.text)
    low_level_input                          0x080102eb   Thumb Code   162  ethernetif.o(.text)
    .text                                    0x08010408   Section        0  memcpya.o(.text)
    .text                                    0x0801042c   Section        0  memseta.o(.text)
    .text                                    0x08010450   Section        0  strlen.o(.text)
    .text                                    0x0801045e   Section        0  strcmp.o(.text)
    .text                                    0x0801047a   Section        0  memcmp.o(.text)
    .text                                    0x08010494   Section        0  strncmp.o(.text)
    .text                                    0x080104b2   Section        0  dmul.o(.text)
    .text                                    0x08010596   Section        0  ddiv.o(.text)
    .text                                    0x08010674   Section        0  dflti.o(.text)
    .text                                    0x08010696   Section        0  dfixi.o(.text)
    .text                                    0x080106d4   Section        0  uidiv.o(.text)
    .text                                    0x08010700   Section        0  llushr.o(.text)
    .text                                    0x08010720   Section        0  iusefp.o(.text)
    .text                                    0x08010720   Section        0  depilogue.o(.text)
    .text                                    0x080107da   Section        0  dadd.o(.text)
    .text                                    0x08010928   Section        0  dscalb.o(.text)
    .text                                    0x08010958   Section       36  init.o(.text)
    .text                                    0x0801097c   Section        0  llshl.o(.text)
    .text                                    0x0801099a   Section        0  llsshr.o(.text)
    .text                                    0x080109c0   Section       48  cdcmple.o(.text)
    .text                                    0x080109f0   Section        0  __dczerorl2.o(.text)
    i.__0sprintf$3                           0x08010a5c   Section        0  printf3.o(i.__0sprintf$3)
    i.__kernel_poly                          0x08010a84   Section        0  poly.o(i.__kernel_poly)
    i.__mathlib_dbl_divzero                  0x08010b30   Section        0  dunder.o(i.__mathlib_dbl_divzero)
    i.__mathlib_dbl_infnan                   0x08010b40   Section        0  dunder.o(i.__mathlib_dbl_infnan)
    i.__mathlib_dbl_invalid                  0x08010b46   Section        0  dunder.o(i.__mathlib_dbl_invalid)
    i.__scatterload_copy                     0x08010b52   Section       14  handlers.o(i.__scatterload_copy)
    i.__scatterload_null                     0x08010b60   Section        2  handlers.o(i.__scatterload_null)
    i.__scatterload_zeroinit                 0x08010b62   Section       14  handlers.o(i.__scatterload_zeroinit)
    i.__set_errno                            0x08010b70   Section        0  errno.o(i.__set_errno)
    i._printf_core                           0x08010b7c   Section        0  printf3.o(i._printf_core)
    _printf_core                             0x08010b7d   Thumb Code   436  printf3.o(i._printf_core)
    i._sputc                                 0x08010d34   Section        0  printf3.o(i._sputc)
    _sputc                                   0x08010d35   Thumb Code    10  printf3.o(i._sputc)
    i.log                                    0x08010d40   Section        0  log.o(i.log)
    i.log10                                  0x0801109c   Section        0  log10.o(i.log10)
    .constdata                               0x08011180   Section     9702  myaudiosample.o(.constdata)
    .constdata                               0x08013766   Section     2998  myhttpd.o(.constdata)
    .constdata                               0x0801431c   Section       36  memp.o(.constdata)
    memp_sizes                               0x0801431c   Data          18  memp.o(.constdata)
    memp_num                                 0x0801432e   Data          18  memp.o(.constdata)
    .constdata                               0x08014340   Section       20  tcp.o(.constdata)
    .constdata                               0x08014354   Section        8  ip_addr.o(.constdata)
    .constdata                               0x0801435c   Section       12  etharp.o(.constdata)
    .constdata                               0x08014368   Section       56  log.o(.constdata)
    Lg2                                      0x08014368   Data          24  log.o(.constdata)
    Lg                                       0x08014380   Data          32  log.o(.constdata)
    .constdata                               0x080143a0   Section        8  qnan.o(.constdata)
    .conststring                             0x080143a8   Section      105  mycommander.o(.conststring)
    .conststring                             0x08014414   Section      117  tcp.o(.conststring)
    .text                                    0x20000000   Section        0  myramfunc.o(.text)
    .data                                    0x20000294   Section        4  main.o(.data)
    .data                                    0x20000298   Section       64  myapp.o(.data)
    step                                     0x200002d4   Data           4  myapp.o(.data)
    .data                                    0x200002d8   Section       80  mynet.o(.data)
    .data                                    0x20000328   Section        5  myethernet.o(.data)
    .data                                    0x20000330   Section       32  mytimer.o(.data)
    .data                                    0x20000350   Section       60  mylwip.o(.data)
    arptimer                                 0x20000388   Data           4  mylwip.o(.data)
    .data                                    0x2000038c   Section        8  myi2c.o(.data)
    .data                                    0x20000394   Section        4  myi2s.o(.data)
    .data                                    0x20000398   Section      252  myaudio.o(.data)
    AudioVolume_bak                          0x2000048c   Data           4  myaudio.o(.data)
    buf_index                                0x20000490   Data           4  myaudio.o(.data)
    .data                                    0x20000494   Section       16  myprotocol.o(.data)
    .data                                    0x200004a4   Section        4  myflash.o(.data)
    .data                                    0x200004a8   Section        4  mystorage.o(.data)
    .data                                    0x200004ac   Section       12  mycommander.o(.data)
    .data                                    0x200004b8   Section       28  mykey.o(.data)
    .data                                    0x200004d4   Section       36  myselftest.o(.data)
    .data                                    0x200004f8   Section       28  mytftpclient.o(.data)
    .data                                    0x20000514   Section        8  myramfunc.o(.data)
    bit_val                                  0x20000518   Data           4  myramfunc.o(.data)
    .data                                    0x2000051c   Section      448  mynoise.o(.data)
    no_speak_flag                            0x200006d4   Data           4  mynoise.o(.data)
    original_noise                           0x200006d8   Data           4  mynoise.o(.data)
    .data                                    0x200006dc   Section        9  soundcard.o(.data)
    .data                                    0x200006e5   Section       16  stm32f2xx_rcc.o(.data)
    APBAHBPrescTable                         0x200006e5   Data          16  stm32f2xx_rcc.o(.data)
    .data                                    0x200006f8   Section       20  system_stm32f2xx.o(.data)
    .data                                    0x2000070c   Section       16  stm32f2x7_eth.o(.data)
    .data                                    0x2000071c   Section       13  mem.o(.data)
    ram                                      0x2000071c   Data           4  mem.o(.data)
    ram_end                                  0x20000720   Data           4  mem.o(.data)
    lfree                                    0x20000724   Data           4  mem.o(.data)
    mem_sem                                  0x20000728   Data           1  mem.o(.data)
    .data                                    0x2000072c   Section        9  netif.o(.data)
    netifnum                                 0x20000734   Data           1  netif.o(.data)
    .data                                    0x20000738   Section        4  raw.o(.data)
    raw_pcbs                                 0x20000738   Data           4  raw.o(.data)
    .data                                    0x2000073c   Section       76  tcp.o(.data)
    tcp_timer                                0x20000780   Data           1  tcp.o(.data)
    port                                     0x20000782   Data           2  tcp.o(.data)
    iss                                      0x20000784   Data           4  tcp.o(.data)
    .data                                    0x20000788   Section       32  tcp_in.o(.data)
    tcphdr                                   0x20000788   Data           4  tcp_in.o(.data)
    iphdr                                    0x2000078c   Data           4  tcp_in.o(.data)
    seqno                                    0x20000790   Data           4  tcp_in.o(.data)
    ackno                                    0x20000794   Data           4  tcp_in.o(.data)
    flags                                    0x20000798   Data           1  tcp_in.o(.data)
    tcplen                                   0x2000079a   Data           2  tcp_in.o(.data)
    recv_flags                               0x2000079c   Data           1  tcp_in.o(.data)
    recv_data                                0x200007a0   Data           4  tcp_in.o(.data)
    .data                                    0x200007a8   Section        4  udp.o(.data)
    .data                                    0x200007ac   Section       10  ip.o(.data)
    ip_id                                    0x200007b4   Data           2  ip.o(.data)
    .data                                    0x200007b8   Section        6  ip_frag.o(.data)
    reassdatagrams                           0x200007b8   Data           4  ip_frag.o(.data)
    ip_reass_pbufcount                       0x200007bc   Data           2  ip_frag.o(.data)
    .data                                    0x200007be   Section        1  etharp.o(.data)
    etharp_cached_entry                      0x200007be   Data           1  etharp.o(.data)
    .data                                    0x200007c0   Section        4  errno.o(.data)
    _errno                                   0x200007c0   Data           4  errno.o(.data)
    .bss                                     0x200007c4   Section       20  myapp.o(.bss)
    .bss                                     0x200007d8   Section     1280  mynet.o(.bss)
    .bss                                     0x20000cd8   Section       52  mylwip.o(.bss)
    .bss                                     0x20000d0c   Section     8192  myi2s.o(.bss)
    .bss                                     0x20002d0c   Section    21644  myaudio.o(.bss)
    vbuf                                     0x20008158   Data          32  myaudio.o(.bss)
    ibuf                                     0x20008178   Data          32  myaudio.o(.bss)
    .bss                                     0x20008198   Section     2048  myhttpd.o(.bss)
    .bss                                     0x20008998   Section       23  mystorage.o(.bss)
    .bss                                     0x200089af   Section      512  mycommander.o(.bss)
    .bss                                     0x20008bb0   Section      512  myadc.o(.bss)
    .bss                                     0x20008db0   Section      128  myselftest.o(.bss)
    .bss                                     0x20008e30   Section      516  mytftpclient.o(.bss)
    .bss                                     0x20009034   Section     1600  mynoise.o(.bss)
    .bss                                     0x20009674   Section    15572  stm32f2x7_eth.o(.bss)
    .bss                                     0x2000d348   Section    10260  mem.o(.bss)
    ram_heap                                 0x2000d348   Data       10260  mem.o(.bss)
    .bss                                     0x2000fb5c   Section    26695  memp.o(.bss)
    memp_tab                                 0x2000fb5c   Data          36  memp.o(.bss)
    memp_memory                              0x2000fb80   Data       26659  memp.o(.bss)
    .bss                                     0x200163a4   Section       20  tcp_in.o(.bss)
    inseg                                    0x200163a4   Data          20  tcp_in.o(.bss)
    .bss                                     0x200163b8   Section       16  inet.o(.bss)
    str                                      0x200163b8   Data          16  inet.o(.bss)
    .bss                                     0x200163c8   Section     1504  ip_frag.o(.bss)
    buf                                      0x200163c8   Data        1504  ip_frag.o(.bss)
    .bss                                     0x200169a8   Section      200  etharp.o(.bss)
    arp_table                                0x200169a8   Data         200  etharp.o(.bss)
    STACK                                    0x20016a70   Section     4096  startup_stm32f2xx.o(STACK)

    Global Symbols

    Symbol Name                              Value     Ov Type        Size  Object(Section)

    BuildAttributes$$THM_ISAv4$P$D$K$B$S$PE$A:L22UL41UL21$X:L11$S22US41US21$IEEE1$IW$USESV6$~STKCKD$USESV7$~SHL$OTIME$ROPI$IEEEX$EBA8$MICROLIB$REQ8$PRES8$EABIv2 0x00000000   Number         0  anon$$obj.o ABSOLUTE
    __ARM_use_no_argv                        0x00000000   Number         0  main.o ABSOLUTE
    _printf_a                                0x00000000   Number         0  stubs.o ABSOLUTE
    _printf_c                                0x00000000   Number         0  stubs.o ABSOLUTE
    _printf_charcount                        0x00000000   Number         0  stubs.o ABSOLUTE
    _printf_d                                0x00000000   Number         0  stubs.o ABSOLUTE
    _printf_e                                0x00000000   Number         0  stubs.o ABSOLUTE
    _printf_f                                0x00000000   Number         0  stubs.o ABSOLUTE
    _printf_flags                            0x00000000   Number         0  stubs.o ABSOLUTE
    _printf_fp_dec                           0x00000000   Number         0  stubs.o ABSOLUTE
    _printf_fp_hex                           0x00000000   Number         0  stubs.o ABSOLUTE
    _printf_g                                0x00000000   Number         0  stubs.o ABSOLUTE
    _printf_i                                0x00000000   Number         0  stubs.o ABSOLUTE
    _printf_int_dec                          0x00000000   Number         0  stubs.o ABSOLUTE
    _printf_l                                0x00000000   Number         0  stubs.o ABSOLUTE
    _printf_lc                               0x00000000   Number         0  stubs.o ABSOLUTE
    _printf_ll                               0x00000000   Number         0  stubs.o ABSOLUTE
    _printf_lld                              0x00000000   Number         0  stubs.o ABSOLUTE
    _printf_lli                              0x00000000   Number         0  stubs.o ABSOLUTE
    _printf_llo                              0x00000000   Number         0  stubs.o ABSOLUTE
    _printf_llu                              0x00000000   Number         0  stubs.o ABSOLUTE
    _printf_llx                              0x00000000   Number         0  stubs.o ABSOLUTE
    _printf_longlong_dec                     0x00000000   Number         0  stubs.o ABSOLUTE
    _printf_longlong_hex                     0x00000000   Number         0  stubs.o ABSOLUTE
    _printf_longlong_oct                     0x00000000   Number         0  stubs.o ABSOLUTE
    _printf_ls                               0x00000000   Number         0  stubs.o ABSOLUTE
    _printf_mbtowc                           0x00000000   Number         0  stubs.o ABSOLUTE
    _printf_n                                0x00000000   Number         0  stubs.o ABSOLUTE
    _printf_o                                0x00000000   Number         0  stubs.o ABSOLUTE
    _printf_p                                0x00000000   Number         0  stubs.o ABSOLUTE
    _printf_percent                          0x00000000   Number         0  stubs.o ABSOLUTE
    _printf_pre_padding                      0x00000000   Number         0  stubs.o ABSOLUTE
    _printf_return_value                     0x00000000   Number         0  stubs.o ABSOLUTE
    _printf_s                                0x00000000   Number         0  stubs.o ABSOLUTE
    _printf_sizespec                         0x00000000   Number         0  stubs.o ABSOLUTE
    _printf_str                              0x00000000   Number         0  stubs.o ABSOLUTE
    _printf_truncate_signed                  0x00000000   Number         0  stubs.o ABSOLUTE
    _printf_truncate_unsigned                0x00000000   Number         0  stubs.o ABSOLUTE
    _printf_u                                0x00000000   Number         0  stubs.o ABSOLUTE
    _printf_wc                               0x00000000   Number         0  stubs.o ABSOLUTE
    _printf_wctomb                           0x00000000   Number         0  stubs.o ABSOLUTE
    _printf_widthprec                        0x00000000   Number         0  stubs.o ABSOLUTE
    _printf_x                                0x00000000   Number         0  stubs.o ABSOLUTE
    __cpp_initialize__aeabi_                  - Undefined Weak Reference
    __cxa_finalize                            - Undefined Weak Reference
    _clock_init                               - Undefined Weak Reference
    _microlib_exit                            - Undefined Weak Reference
    __Vectors_Size                           0x00000184   Number         0  startup_stm32f2xx.o ABSOLUTE
    __Vectors                                0x08000000   Data           4  startup_stm32f2xx.o(RESET)
    __Vectors_End                            0x08000184   Data           0  startup_stm32f2xx.o(RESET)
    __main                                   0x08000185   Thumb Code     0  entry.o(.ARM.Collect$$$$00000000)
    _main_stk                                0x08000185   Thumb Code     0  entry2.o(.ARM.Collect$$$$00000001)
    _main_scatterload                        0x08000189   Thumb Code     0  entry5.o(.ARM.Collect$$$$00000004)
    __main_after_scatterload                 0x0800018d   Thumb Code     0  entry5.o(.ARM.Collect$$$$00000004)
    _main_clock                              0x0800018d   Thumb Code     0  entry7b.o(.ARM.Collect$$$$00000008)
    _main_cpp_init                           0x0800018d   Thumb Code     0  entry8b.o(.ARM.Collect$$$$0000000A)
    _main_init                               0x0800018d   Thumb Code     0  entry9a.o(.ARM.Collect$$$$0000000B)
    __rt_final_cpp                           0x08000195   Thumb Code     0  entry10a.o(.ARM.Collect$$$$0000000D)
    __rt_final_exit                          0x08000195   Thumb Code     0  entry11a.o(.ARM.Collect$$$$0000000F)
    main                                     0x08000199   Thumb Code   392  main.o(.text)
    AppInit                                  0x08000351   Thumb Code   104  myapp.o(.text)
    AppOff                                   0x080003b9   Thumb Code    56  myapp.o(.text)
    AppStart                                 0x080003f1   Thumb Code     8  myapp.o(.text)
    VolumeDevProcess                         0x080003f9   Thumb Code    28  myapp.o(.text)
    AppProcess                               0x08000415   Thumb Code     8  myapp.o(.text)
    App10ms                                  0x0800041d   Thumb Code     8  myapp.o(.text)
    GetCurrentState                          0x08000425   Thumb Code   366  myapp.o(.text)
    GetNoiseDetectState                      0x08000593   Thumb Code    90  myapp.o(.text)
    GetDC24Vs                                0x080005ed   Thumb Code    48  myapp.o(.text)
    GetAmpState                              0x0800061d   Thumb Code    60  myapp.o(.text)
    LedLight                                 0x08000659   Thumb Code     8  myapp.o(.text)
    LedGetBrightness                         0x08000661   Thumb Code    10  myapp.o(.text)
    DisplayDb                                0x0800066b   Thumb Code   890  myapp.o(.text)
    App100ms                                 0x080009e5   Thumb Code    80  myapp.o(.text)
    App1000ms                                0x08000a35   Thumb Code     2  myapp.o(.text)
    SetDeviceId                              0x08000a37   Thumb Code    30  myapp.o(.text)
    SetTrainId                               0x08000a55   Thumb Code    32  myapp.o(.text)
    LedLightProcess                          0x08000a75   Thumb Code   136  myapp.o(.text)
    Volumeset                                0x08000afd   Thumb Code    38  myapp.o(.text)
    RCC_Configuration                        0x08000b49   Thumb Code    28  myboard.o(.text)
    GPIO_Configuration                       0x08000b65   Thumb Code  1328  myboard.o(.text)
    NVIC_Configuration                       0x08001095   Thumb Code     2  myboard.o(.text)
    LED1Flash                                0x08001097   Thumb Code    28  myboard.o(.text)
    LED1On                                   0x080010b3   Thumb Code    12  myboard.o(.text)
    LED1Off                                  0x080010bf   Thumb Code    12  myboard.o(.text)
    LED2Flash                                0x080010cb   Thumb Code    32  myboard.o(.text)
    LED2On                                   0x080010eb   Thumb Code    14  myboard.o(.text)
    LED2Off                                  0x080010f9   Thumb Code    14  myboard.o(.text)
    WriteL3Data                              0x08001107   Thumb Code    32  myboard.o(.text)
    WriteL3Clock                             0x08001127   Thumb Code    32  myboard.o(.text)
    WriteL3Mode                              0x08001147   Thumb Code    32  myboard.o(.text)
    LED3pdbOn                                0x08001167   Thumb Code    14  myboard.o(.text)
    LED3pdbOff                               0x08001175   Thumb Code    14  myboard.o(.text)
    LED0dbOn                                 0x08001183   Thumb Code    12  myboard.o(.text)
    LED0dbOff                                0x0800118f   Thumb Code    12  myboard.o(.text)
    LED3dbOn                                 0x0800119b   Thumb Code    12  myboard.o(.text)
    LED3dbOff                                0x080011a7   Thumb Code    12  myboard.o(.text)
    LED6dbOn                                 0x080011b3   Thumb Code    12  myboard.o(.text)
    LED6dbOff                                0x080011bf   Thumb Code    12  myboard.o(.text)
    LED9dbOn                                 0x080011cb   Thumb Code    14  myboard.o(.text)
    LED9dbOff                                0x080011d9   Thumb Code    14  myboard.o(.text)
    GetAddress                               0x080011e7   Thumb Code   164  myboard.o(.text)
    GetKeyUp                                 0x0800128b   Thumb Code    26  myboard.o(.text)
    GetKeyDown                               0x080012a5   Thumb Code    26  myboard.o(.text)
    GetShort                                 0x080012bf   Thumb Code    26  myboard.o(.text)
    GetOvp                                   0x080012d9   Thumb Code    26  myboard.o(.text)
    GetUvp                                   0x080012f3   Thumb Code    26  myboard.o(.text)
    GetDC24V1                                0x0800130d   Thumb Code    24  myboard.o(.text)
    GetDC24V2                                0x08001325   Thumb Code    24  myboard.o(.text)
    GetEme                                   0x0800133d   Thumb Code    26  myboard.o(.text)
    GetNoise1Detect                          0x08001357   Thumb Code    24  myboard.o(.text)
    GetNoise2Detect                          0x0800136f   Thumb Code    24  myboard.o(.text)
    FeedDog                                  0x08001387   Thumb Code    54  myboard.o(.text)
    Wwdg_Init                                0x080013bd   Thumb Code    48  myboard.o(.text)
    Wwdg_Feed                                0x080013ed   Thumb Code     2  myboard.o(.text)
    Delay                                    0x080013f1   Thumb Code    26  mymiscfunc.o(.text)
    bcd_to_data                              0x0800140b   Thumb Code    26  mymiscfunc.o(.text)
    data_to_bcd                              0x08001425   Thumb Code    32  mymiscfunc.o(.text)
    shifang                                  0x08001445   Thumb Code    28  mymiscfunc.o(.text)
    shiliufang                               0x08001461   Thumb Code    24  mymiscfunc.o(.text)
    IndexAddn                                0x08001479   Thumb Code    22  mymiscfunc.o(.text)
    IndexAdd1                                0x0800148f   Thumb Code    10  mymiscfunc.o(.text)
    LineToWords                              0x08001499   Thumb Code   108  mymiscfunc.o(.text)
    StrSplitFrontChar                        0x08001505   Thumb Code    60  mymiscfunc.o(.text)
    StrSplitBehindChar                       0x08001541   Thumb Code    62  mymiscfunc.o(.text)
    StrToInt                                 0x0800157f   Thumb Code   178  mymiscfunc.o(.text)
    IntToStr                                 0x08001631   Thumb Code   162  mymiscfunc.o(.text)
    Ip4toIp32                                0x080016d3   Thumb Code    26  mymiscfunc.o(.text)
    NetInit                                  0x080016f1   Thumb Code   266  mynet.o(.text)
    NetProcess                               0x080017fb   Thumb Code     2  mynet.o(.text)
    Net50ms                                  0x080017fd   Thumb Code     2  mynet.o(.text)
    NetControlSendInspection                 0x080017ff   Thumb Code    62  mynet.o(.text)
    Net500ms                                 0x0800183d   Thumb Code    30  mynet.o(.text)
    NetIp32toIp4                             0x0800185b   Thumb Code    20  mynet.o(.text)
    NetIp4toIp32                             0x0800186f   Thumb Code    26  mynet.o(.text)
    NetSetLocalIp4                           0x08001889   Thumb Code   130  mynet.o(.text)
    NetSetLocalIp32                          0x0800190b   Thumb Code    80  mynet.o(.text)
    NetControlReceiveAllDevUpdate            0x0800195b   Thumb Code   106  mynet.o(.text)
    NetControlSendSelfTestState              0x080019c5   Thumb Code    42  mynet.o(.text)
    NetControlReceiveSelfTestCmd             0x080019ef   Thumb Code    48  mynet.o(.text)
    NetGetPcvcState                          0x08001a1f   Thumb Code    84  mynet.o(.text)
    NetGetCcvcState                          0x08001a73   Thumb Code   460  mynet.o(.text)
    NetGetBaseIp                             0x08001c3f   Thumb Code   240  mynet.o(.text)
    NetControlReceiveInspection              0x08001d2f   Thumb Code   226  mynet.o(.text)
    NetControlReceiveVolume                  0x08001e11   Thumb Code    34  mynet.o(.text)
    NetControlReceiveProcess                 0x08001e33   Thumb Code   112  mynet.o(.text)
    NetControlSendSelfTestReport             0x08001ea3   Thumb Code    28  mynet.o(.text)
    NetControlSendAllDevUpdate               0x08001ebf   Thumb Code   110  mynet.o(.text)
    NetBroadcastReceiveProcess               0x08001f2d   Thumb Code   408  mynet.o(.text)
    NetBroadcastSendProcess                  0x080020c5   Thumb Code     4  mynet.o(.text)
    NetTalkReceiveProcess                    0x080020c9   Thumb Code     6  mynet.o(.text)
    NetTalkSend                              0x080020cf   Thumb Code     6  mynet.o(.text)
    NetTalkTestLeftSend                      0x080020d5   Thumb Code    36  mynet.o(.text)
    NetTalkTestRightSend                     0x080020f9   Thumb Code    36  mynet.o(.text)
    NetPlayclkReceiveProcess                 0x0800211d   Thumb Code    92  mynet.o(.text)
    NetPlayclkSendProcess                    0x08002179   Thumb Code    46  mynet.o(.text)
    NetSetBaseIp                             0x080021a7   Thumb Code    66  mynet.o(.text)
    NetDownloadSendAppAck                    0x080021e9   Thumb Code    76  mynet.o(.text)
    NetDownloadReceiveAppDataSave            0x08002235   Thumb Code    52  mynet.o(.text)
    NetDownloadReceiveProcess                0x08002269   Thumb Code   154  mynet.o(.text)
    EthernetMacDmaConfig                     0x08002345   Thumb Code   132  myethernet.o(.text)
    EthernetGpioConfig                       0x080023c9   Thumb Code   190  myethernet.o(.text)
    EthernetInit                             0x08002487   Thumb Code    12  myethernet.o(.text)
    EthernetOff                              0x08002493   Thumb Code     8  myethernet.o(.text)
    NMI_Handler                              0x080024ad   Thumb Code     2  stm32f2xx_it.o(.text)
    HardFault_Handler                        0x080024af   Thumb Code     4  stm32f2xx_it.o(.text)
    MemManage_Handler                        0x080024b3   Thumb Code     4  stm32f2xx_it.o(.text)
    BusFault_Handler                         0x080024b7   Thumb Code     4  stm32f2xx_it.o(.text)
    UsageFault_Handler                       0x080024bb   Thumb Code     4  stm32f2xx_it.o(.text)
    DebugMon_Handler                         0x080024bf   Thumb Code     2  stm32f2xx_it.o(.text)
    SysTick_Handler                          0x080024c1   Thumb Code     8  stm32f2xx_it.o(.text)
    DMA1_Stream2_IRQHandler                  0x080024c9   Thumb Code     8  stm32f2xx_it.o(.text)
    DMA1_Stream4_IRQHandler                  0x080024d1   Thumb Code     8  stm32f2xx_it.o(.text)
    SysTick_Init                             0x080024d9   Thumb Code    92  mytimer.o(.text)
    SysTick_Isr                              0x08002535   Thumb Code    82  mytimer.o(.text)
    TimerOff                                 0x08002587   Thumb Code    12  mytimer.o(.text)
    Timer1_Init                              0x08002593   Thumb Code     2  mytimer.o(.text)
    Timer1_Isr                               0x08002595   Thumb Code     2  mytimer.o(.text)
    MyTimer10                                0x08002597   Thumb Code    16  mytimer.o(.text)
    MyTimer20                                0x080025a7   Thumb Code     2  mytimer.o(.text)
    MyTimer50                                0x080025a9   Thumb Code    12  mytimer.o(.text)
    MyTimer100                               0x080025b5   Thumb Code    44  mytimer.o(.text)
    MyTimer200                               0x080025e1   Thumb Code     8  mytimer.o(.text)
    MyTimer500                               0x080025e9   Thumb Code    78  mytimer.o(.text)
    MyTimer1000                              0x08002637   Thumb Code     8  mytimer.o(.text)
    MyTimer2000                              0x0800263f   Thumb Code     2  mytimer.o(.text)
    UdpDownloadSendInit                      0x08002679   Thumb Code    26  mylwip.o(.text)
    UdpDownloadReceiveCallback               0x08002693   Thumb Code    32  mylwip.o(.text)
    UdpDownloadRcvInit                       0x080026b3   Thumb Code    40  mylwip.o(.text)
    UdpPlayclkSendInit                       0x080026db   Thumb Code    26  mylwip.o(.text)
    UdpPlayclkReceiveCallback                0x080026f5   Thumb Code    32  mylwip.o(.text)
    UdpPlayclkRcvInit                        0x08002715   Thumb Code    40  mylwip.o(.text)
    UdpTalkSendInit                          0x0800273d   Thumb Code    26  mylwip.o(.text)
    UdpTalkReceiveCallback                   0x08002757   Thumb Code    32  mylwip.o(.text)
    UdpTalkRcvInit                           0x08002777   Thumb Code    40  mylwip.o(.text)
    UdpBroadcastSendInit                     0x0800279f   Thumb Code    26  mylwip.o(.text)
    UdpBroadcastReceiveCallback              0x080027b9   Thumb Code    32  mylwip.o(.text)
    UdpBroadcastRcvInit                      0x080027d9   Thumb Code    40  mylwip.o(.text)
    UdpControlSendInit                       0x08002801   Thumb Code    26  mylwip.o(.text)
    UdpControlReceiveCallback                0x0800281b   Thumb Code    32  mylwip.o(.text)
    UdpControlRcvInit                        0x0800283b   Thumb Code    40  mylwip.o(.text)
    UdpCommanderReceiveCallback              0x08002863   Thumb Code    32  mylwip.o(.text)
    UdpCommanderInit                         0x08002883   Thumb Code    40  mylwip.o(.text)
    UdpTestReceiveCallback                   0x080028ab   Thumb Code    50  mylwip.o(.text)
    UdpTestInit                              0x080028dd   Thumb Code    40  mylwip.o(.text)
    LwipInit                                 0x08002905   Thumb Code   254  mylwip.o(.text)
    LwipOff                                  0x08002a03   Thumb Code    14  mylwip.o(.text)
    LwipPktHandle                            0x08002a11   Thumb Code    10  mylwip.o(.text)
    LwipProcess                              0x08002a1b   Thumb Code    14  mylwip.o(.text)
    LwipPeriodicHandle                       0x08002a29   Thumb Code    30  mylwip.o(.text)
    Lwip50ms                                 0x08002a47   Thumb Code     8  mylwip.o(.text)
    UdpTestSend                              0x08002a4f   Thumb Code   204  mylwip.o(.text)
    UdpCommanderSend                         0x08002b1b   Thumb Code    70  mylwip.o(.text)
    UdpControlSend                           0x08002b61   Thumb Code    70  mylwip.o(.text)
    UdpBroadcastSend                         0x08002ba7   Thumb Code    70  mylwip.o(.text)
    UdpTalkSend                              0x08002bed   Thumb Code    70  mylwip.o(.text)
    UdpPlayclkSend                           0x08002c33   Thumb Code    70  mylwip.o(.text)
    UdpDownloadSend                          0x08002c79   Thumb Code    70  mylwip.o(.text)
    AT24C32_Init                             0x08002ce1   Thumb Code    58  myi2c.o(.text)
    AT24C32_ByteWrite                        0x08002d1b   Thumb Code   436  myi2c.o(.text)
    AT24C32_ByteRead                         0x08002ecf   Thumb Code   628  myi2c.o(.text)
    AT24C32_PageWrite                        0x08003143   Thumb Code   466  myi2c.o(.text)
    AT24C32_PageRead                         0x08003315   Thumb Code   636  myi2c.o(.text)
    PT2257Init                               0x08003591   Thumb Code    58  myi2c.o(.text)
    PT2257Write                              0x080035cb   Thumb Code   452  myi2c.o(.text)
    I2cKsz8863Init                           0x0800378f   Thumb Code     2  myi2c.o(.text)
    I2cKsz8863ReadByte                       0x08003791   Thumb Code     6  myi2c.o(.text)
    I2cKsz8863WriteByte                      0x08003797   Thumb Code     2  myi2c.o(.text)
    I2s2_Init                                0x080037b5   Thumb Code    74  myi2s.o(.text)
    I2s2Down                                 0x080037ff   Thumb Code    30  myi2s.o(.text)
    I2s2Up                                   0x0800381d   Thumb Code    30  myi2s.o(.text)
    DmaPlay_Init                             0x0800383b   Thumb Code   184  myi2s.o(.text)
    DmaPlayWriteRight                        0x080038f3   Thumb Code    66  myi2s.o(.text)
    DmaPlayWriteLeft                         0x08003935   Thumb Code   138  myi2s.o(.text)
    DmaPlay_Isr                              0x080039bf   Thumb Code    86  myi2s.o(.text)
    I2s3_Init                                0x08003a15   Thumb Code    68  myi2s.o(.text)
    I2s3Down                                 0x08003a59   Thumb Code    32  myi2s.o(.text)
    I2s3Up                                   0x08003a79   Thumb Code    32  myi2s.o(.text)
    DmaListen_Init                           0x08003a99   Thumb Code   204  myi2s.o(.text)
    DmaListenUpLoadRight                     0x08003b65   Thumb Code   156  myi2s.o(.text)
    DmaListenUpLoadLeft                      0x08003c01   Thumb Code    72  myi2s.o(.text)
    DmaListen_Isr                            0x08003c49   Thumb Code    76  myi2s.o(.text)
    I2sOff                                   0x08003c95   Thumb Code    12  myi2s.o(.text)
    L3Delay                                  0x08003ca1   Thumb Code    12  myi2s.o(.text)
    L3SendByte                               0x08003cad   Thumb Code   112  myi2s.o(.text)
    L3WriteUda1341Status                     0x08003d1d   Thumb Code    36  myi2s.o(.text)
    L3Uda1341Down                            0x08003d41   Thumb Code    20  myi2s.o(.text)
    L3Uda1341Up                              0x08003d55   Thumb Code    20  myi2s.o(.text)
    L3WriteUda1341Data0                      0x08003d69   Thumb Code    76  myi2s.o(.text)
    L3WriteUda1341Data1                      0x08003db5   Thumb Code     2  myi2s.o(.text)
    L3InitUda1341                            0x08003db7   Thumb Code    12  myi2s.o(.text)
    L3Uda1341SetVolume                       0x08003dc3   Thumb Code   134  myi2s.o(.text)
    L3Uda1341SetBassTreble                   0x08003e49   Thumb Code    76  myi2s.o(.text)
    L3Uda1341SetInputGain                    0x08003e95   Thumb Code    50  myi2s.o(.text)
    AudioSetVolume                           0x08003eed   Thumb Code   162  myaudio.o(.text)
    AudioDown                                0x08003f8f   Thumb Code     8  myaudio.o(.text)
    AudioInit                                0x08003f97   Thumb Code   258  myaudio.o(.text)
    AudioUp                                  0x08004099   Thumb Code    18  myaudio.o(.text)
    AudioWriteFrontData                      0x080040ab   Thumb Code    94  myaudio.o(.text)
    AudioPlayTestSinWrite                    0x08004109   Thumb Code    60  myaudio.o(.text)
    AudioPlayTestSinProcess                  0x08004145   Thumb Code   232  myaudio.o(.text)
    AudioProcess                             0x0800422d   Thumb Code   130  myaudio.o(.text)
    AudioInputSampleProcess                  0x080042af   Thumb Code   458  myaudio.o(.text)
    Audio10ms                                0x08004479   Thumb Code     8  myaudio.o(.text)
    AudioSamplingI                           0x08004481   Thumb Code    78  myaudio.o(.text)
    AudioSamplingV                           0x080044cf   Thumb Code    78  myaudio.o(.text)
    AudioSampleProcess                       0x0800451d   Thumb Code   306  myaudio.o(.text)
    Audio100ms                               0x0800464f   Thumb Code    94  myaudio.o(.text)
    Audio200ms                               0x080046ad   Thumb Code     2  myaudio.o(.text)
    AudioSetNdOffsetProcess                  0x080046af   Thumb Code    94  myaudio.o(.text)
    Audio500ms                               0x0800470d   Thumb Code     8  myaudio.o(.text)
    AudioWriteBackData                       0x08004715   Thumb Code    48  myaudio.o(.text)
    AudioPlayLeftFifoWrite                   0x08004745   Thumb Code   262  myaudio.o(.text)
    AudioPlayLeftFifoRead                    0x0800484b   Thumb Code     8  myaudio.o(.text)
    AudioPlayTestSin                         0x08004853   Thumb Code   192  myaudio.o(.text)
    AudioListenSendProcess                   0x08004913   Thumb Code   112  myaudio.o(.text)
    EmeVolumeSet                             0x08004983   Thumb Code    16  myaudio.o(.text)
    EmeVolumeSetProcess                      0x08004993   Thumb Code   278  myaudio.o(.text)
    EmeAudioTestFlagSet                      0x08004aa9   Thumb Code    20  myaudio.o(.text)
    AudioPlayClockSend                       0x08004abd   Thumb Code    26  myaudio.o(.text)
    AudioSetNdOffset                         0x08004ad7   Thumb Code    48  myaudio.o(.text)
    AduioTypeVolume                          0x08004b07   Thumb Code   198  myaudio.o(.text)
    ProtocolInit                             0x08004c4d   Thumb Code    60  myprotocol.o(.text)
    ProtocolRcvHeadCheck                     0x08004c89   Thumb Code   112  myprotocol.o(.text)
    ProtocolRcvGetSrcDevType                 0x08004cf9   Thumb Code     8  myprotocol.o(.text)
    ProtocolRcvGetDstTrainId                 0x08004d01   Thumb Code     8  myprotocol.o(.text)
    ProtocolRcvGetSrcDevId                   0x08004d09   Thumb Code     8  myprotocol.o(.text)
    ProtocolRcvGetKeyword                    0x08004d11   Thumb Code    10  myprotocol.o(.text)
    ProtocolRcvGetDataLength                 0x08004d1b   Thumb Code    10  myprotocol.o(.text)
    ProtocolRcvGetDataPointer                0x08004d25   Thumb Code    10  myprotocol.o(.text)
    ProtocolRcvGetControlVolume              0x08004d2f   Thumb Code   314  myprotocol.o(.text)
    ProtocolHeadMake                         0x08004e69   Thumb Code    82  myprotocol.o(.text)
    ProtocolSndGetInspectionPack             0x08004ebb   Thumb Code   120  myprotocol.o(.text)
    ProtocolSndGetLocalIpPack                0x08004f33   Thumb Code    32  myprotocol.o(.text)
    ProtocolSndGetDevIdPack                  0x08004f53   Thumb Code    32  myprotocol.o(.text)
    ProtocolSndGetPlayclkPack                0x08004f73   Thumb Code    78  myprotocol.o(.text)
    ProtocolSndGetVolumePack                 0x08004fc1   Thumb Code    32  myprotocol.o(.text)
    ProtocolSndGetTalkDcPack                 0x08004fe1   Thumb Code   176  myprotocol.o(.text)
    ProtocolSndGetTalkDdPack                 0x08005091   Thumb Code    88  myprotocol.o(.text)
    ProtocolSndGetTalkTestLeftPack           0x080050e9   Thumb Code    90  myprotocol.o(.text)
    ProtocolSndGetTalkTestRightPack          0x08005143   Thumb Code    90  myprotocol.o(.text)
    ProtocolSndGetSelfTestStatePack          0x0800519d   Thumb Code    88  myprotocol.o(.text)
    ProtocolSndGetSelfTestReportPack         0x080051f5   Thumb Code   146  myprotocol.o(.text)
    ProtocolSndGetPack                       0x08005287   Thumb Code    86  myprotocol.o(.text)
    SendPageUpdating                         0x080053cf   Thumb Code    36  myhttpd.o(.text)
    GetInputValue                            0x080053f3   Thumb Code   156  myhttpd.o(.text)
    SendPageUpdateInputErr                   0x0800548f   Thumb Code    36  myhttpd.o(.text)
    RcvUpdate                                0x080054b3   Thumb Code   112  myhttpd.o(.text)
    SendPageUpdate                           0x08005523   Thumb Code    36  myhttpd.o(.text)
    SendPageFrame1                           0x08005547   Thumb Code    62  myhttpd.o(.text)
    SendPageFrameIndex                       0x08005585   Thumb Code    36  myhttpd.o(.text)
    SendPageLogin                            0x080055a9   Thumb Code    36  myhttpd.o(.text)
    SendPageLogErr                           0x080055cd   Thumb Code    36  myhttpd.o(.text)
    SendPageFrameMain                        0x080055f1   Thumb Code    36  myhttpd.o(.text)
    RcvLogin                                 0x08005615   Thumb Code   108  myhttpd.o(.text)
    HttpdInit                                0x080058eb   Thumb Code    50  myhttpd.o(.text)
    SendPage1                                0x0800591d   Thumb Code    50  myhttpd.o(.text)
    SendPageFrame2                           0x0800594f   Thumb Code    36  myhttpd.o(.text)
    FlashInit                                0x080059a5   Thumb Code    38  myflash.o(.text)
    FlashUnlock                              0x080059cb   Thumb Code     8  myflash.o(.text)
    FlashLock                                0x080059d3   Thumb Code     8  myflash.o(.text)
    FlashWrite                               0x080059db   Thumb Code    54  myflash.o(.text)
    FlashWriteBytes                          0x08005a11   Thumb Code    90  myflash.o(.text)
    FlashRead                                0x08005a6b   Thumb Code    24  myflash.o(.text)
    FlashReadWord                            0x08005a83   Thumb Code     6  myflash.o(.text)
    FlashProgramCopy                         0x08005a89   Thumb Code    44  myflash.o(.text)
    StorageInit                              0x08005abd   Thumb Code     8  mystorage.o(.text)
    StorageInfoSave                          0x08005ac5   Thumb Code     8  mystorage.o(.text)
    StorageInfoSaveProcess                   0x08005acd   Thumb Code   186  mystorage.o(.text)
    StorageInfoRead                          0x08005b87   Thumb Code    38  mystorage.o(.text)
    CommanderSendString                      0x08005bd1   Thumb Code    22  mycommander.o(.text)
    CommanderSendI2cState                    0x08005be7   Thumb Code    48  mycommander.o(.text)
    CommanderSendTrainId                     0x08005c17   Thumb Code    32  mycommander.o(.text)
    CommanderSendDeviceId                    0x08005c37   Thumb Code    32  mycommander.o(.text)
    CommanderSendDeviceType                  0x08005c57   Thumb Code    32  mycommander.o(.text)
    CommanderSendLocalIp                     0x08005c77   Thumb Code    46  mycommander.o(.text)
    CommanderInit                            0x08005ca5   Thumb Code    44  mycommander.o(.text)
    CommanderSendNoise                       0x08005cd1   Thumb Code    40  mycommander.o(.text)
    CommanderSendSample                      0x08005cf9   Thumb Code    40  mycommander.o(.text)
    CommanderSendAdcValue                    0x08005d21   Thumb Code    36  mycommander.o(.text)
    Commander500ms                           0x08005d45   Thumb Code    86  mycommander.o(.text)
    CommanderUpdateProgramTest               0x08005d9b   Thumb Code    28  mycommander.o(.text)
    CommanderSendEmeAudioTestFlag            0x08005db7   Thumb Code    32  mycommander.o(.text)
    CommanderSendDC24VsState                 0x08005dd7   Thumb Code    36  mycommander.o(.text)
    CommanderSendSpeakerState                0x08005dfb   Thumb Code    32  mycommander.o(.text)
    CommanderSendAmpState                    0x08005e1b   Thumb Code    32  mycommander.o(.text)
    CommanderSendAddr                        0x08005e3b   Thumb Code    32  mycommander.o(.text)
    CommanderReceive                         0x08005e5b   Thumb Code  1430  mycommander.o(.text)
    CommanderSendMyNoise                     0x080063f1   Thumb Code    32  mycommander.o(.text)
    CommanderSendMyNoiseNew                  0x08006411   Thumb Code    32  mycommander.o(.text)
    CommanderSendSensorNoiseNew              0x08006431   Thumb Code    50  mycommander.o(.text)
    CommanderSendAudioInputSampleV           0x08006463   Thumb Code    32  mycommander.o(.text)
    CommanderSendAudioInputSampleVFigure     0x08006483   Thumb Code    54  mycommander.o(.text)
    CommanderSendSelfTestReport              0x080064b9   Thumb Code   184  mycommander.o(.text)
    CommanderSendHttpInfo                    0x08006571   Thumb Code    36  mycommander.o(.text)
    AdcInit                                  0x0800676d   Thumb Code   282  myadc.o(.text)
    AdcGetValue1                             0x08006887   Thumb Code     6  myadc.o(.text)
    AdcGetValue2                             0x0800688d   Thumb Code     6  myadc.o(.text)
    AdcGetFilterValue1                       0x08006893   Thumb Code    44  myadc.o(.text)
    AdcGetFilterValue2                       0x080068bf   Thumb Code    46  myadc.o(.text)
    AdcNewGetValue1                          0x080068ed   Thumb Code    44  myadc.o(.text)
    AdcNewGetValue2                          0x08006919   Thumb Code    46  myadc.o(.text)
    KeyInit                                  0x0800695d   Thumb Code    82  mykey.o(.text)
    Key10ms                                  0x080069af   Thumb Code   262  mykey.o(.text)
    Key100ms                                 0x08006ab5   Thumb Code    52  mykey.o(.text)
    SelfTestInit                             0x08006b09   Thumb Code     2  myselftest.o(.text)
    SelfTestFrequencyResponseReset           0x08006b0b   Thumb Code    26  myselftest.o(.text)
    SelfTestStart                            0x08006b25   Thumb Code    34  myselftest.o(.text)
    SelfTestStop                             0x08006b47   Thumb Code    22  myselftest.o(.text)
    SelfTest100ms                            0x08006b5d   Thumb Code    16  myselftest.o(.text)
    SelfTestSendReport                       0x08006b6d   Thumb Code    12  myselftest.o(.text)
    SelfTestGetFrequencyResponse             0x08006b79   Thumb Code   114  myselftest.o(.text)
    SelfTestGetSnr                           0x08006beb   Thumb Code   156  myselftest.o(.text)
    SelfTestGetOutputPower                   0x08006c87   Thumb Code    62  myselftest.o(.text)
    SelfTestGetAmplification                 0x08006cc5   Thumb Code    48  myselftest.o(.text)
    SelfTestProcess                          0x08006cf5   Thumb Code   500  myselftest.o(.text)
    SelfTest500ms                            0x08006ee9   Thumb Code    60  myselftest.o(.text)
    TftpClientSendBuf                        0x08006f25   Thumb Code    72  mytftpclient.o(.text)
    SendNum                                  0x08006f6d   Thumb Code    40  mytftpclient.o(.text)
    DownloadFinish                           0x08006f95   Thumb Code    14  mytftpclient.o(.text)
    DataSave                                 0x08006fa3   Thumb Code    52  mytftpclient.o(.text)
    SendAck                                  0x08006fd7   Thumb Code    78  mytftpclient.o(.text)
    DataRecv                                 0x08007025   Thumb Code   164  mytftpclient.o(.text)
    TftpClientRecvCallback                   0x080070c9   Thumb Code    56  mytftpclient.o(.text)
    TftpClientInit                           0x08007101   Thumb Code    92  mytftpclient.o(.text)
    TftpClientProcess                        0x0800715d   Thumb Code     2  mytftpclient.o(.text)
    TftpClient100ms                          0x0800715f   Thumb Code    46  mytftpclient.o(.text)
    TftpClientIapStart                       0x0800718d   Thumb Code   132  mytftpclient.o(.text)
    NoiseInit                                0x08007241   Thumb Code     2  mynoise.o(.text)
    NoiseGetDB                               0x08007243   Thumb Code    42  mynoise.o(.text)
    Noise10ms                                0x0800726d   Thumb Code   292  mynoise.o(.text)
    NoiseNewProsess                          0x08007391   Thumb Code    30  mynoise.o(.text)
    Noise100ms                               0x080073af   Thumb Code     8  mynoise.o(.text)
    NoiseGetMyDB                             0x080073b7   Thumb Code    52  mynoise.o(.text)
    NoiseCalculateOtherDB                    0x080073eb   Thumb Code   440  mynoise.o(.text)
    NoiseNewGetMyDB                          0x080075a3   Thumb Code    12  mynoise.o(.text)
    L3_delay                                 0x08007c2d   Thumb Code    12  soundcard.o(.text)
    write_L3_mode                            0x08007c39   Thumb Code    32  soundcard.o(.text)
    write_L3_clock                           0x08007c59   Thumb Code    32  soundcard.o(.text)
    write_L3_data                            0x08007c79   Thumb Code    32  soundcard.o(.text)
    L3_send_byte                             0x08007c99   Thumb Code   112  soundcard.o(.text)
    L3_uda1341_set_input_gain                0x08007d09   Thumb Code    50  soundcard.o(.text)
    L3_uda1341_set_volume                    0x08007d3b   Thumb Code    82  soundcard.o(.text)
    L3_write_uda1341_status                  0x08007d8d   Thumb Code    36  soundcard.o(.text)
    L3_write_uda1341_data                    0x08007db1   Thumb Code    76  soundcard.o(.text)
    L3_init_uda1341                          0x08007dfd   Thumb Code    12  soundcard.o(.text)
    soundcard_init                           0x08007e09   Thumb Code    52  soundcard.o(.text)
    soundcard_set_input_vol                  0x08007e3d   Thumb Code    26  soundcard.o(.text)
    soundcard_set_output_vol                 0x08007e57   Thumb Code    26  soundcard.o(.text)
    NVIC_PriorityGroupConfig                 0x08007e8d   Thumb Code    10  misc.o(.text)
    NVIC_Init                                0x08007e97   Thumb Code   106  misc.o(.text)
    NVIC_SetVectorTable                      0x08007f01   Thumb Code    14  misc.o(.text)
    NVIC_SystemLPConfig                      0x08007f0f   Thumb Code    34  misc.o(.text)
    SysTick_CLKSourceConfig                  0x08007f31   Thumb Code    40  misc.o(.text)
    DMA_DeInit                               0x08007f6d   Thumb Code   324  stm32f2xx_dma.o(.text)
    DMA_Init                                 0x080080b1   Thumb Code    82  stm32f2xx_dma.o(.text)
    DMA_StructInit                           0x08008103   Thumb Code    34  stm32f2xx_dma.o(.text)
    DMA_Cmd                                  0x08008125   Thumb Code    22  stm32f2xx_dma.o(.text)
    DMA_PeriphIncOffsetSizeConfig            0x0800813b   Thumb Code    22  stm32f2xx_dma.o(.text)
    DMA_FlowControllerConfig                 0x08008151   Thumb Code    22  stm32f2xx_dma.o(.text)
    DMA_SetCurrDataCounter                   0x08008167   Thumb Code     4  stm32f2xx_dma.o(.text)
    DMA_GetCurrDataCounter                   0x0800816b   Thumb Code     8  stm32f2xx_dma.o(.text)
    DMA_DoubleBufferModeConfig               0x08008173   Thumb Code    24  stm32f2xx_dma.o(.text)
    DMA_DoubleBufferModeCmd                  0x0800818b   Thumb Code    22  stm32f2xx_dma.o(.text)
    DMA_MemoryTargetConfig                   0x080081a1   Thumb Code    10  stm32f2xx_dma.o(.text)
    DMA_GetCurrentMemoryTarget               0x080081ab   Thumb Code    20  stm32f2xx_dma.o(.text)
    DMA_GetCmdStatus                         0x080081bf   Thumb Code    20  stm32f2xx_dma.o(.text)
    DMA_GetFIFOStatus                        0x080081d3   Thumb Code    12  stm32f2xx_dma.o(.text)
    DMA_GetFlagStatus                        0x080081df   Thumb Code    56  stm32f2xx_dma.o(.text)
    DMA_ClearFlag                            0x08008217   Thumb Code    40  stm32f2xx_dma.o(.text)
    DMA_ITConfig                             0x0800823f   Thumb Code    58  stm32f2xx_dma.o(.text)
    DMA_GetITStatus                          0x08008279   Thumb Code    84  stm32f2xx_dma.o(.text)
    DMA_ClearITPendingBit                    0x080082cd   Thumb Code    40  stm32f2xx_dma.o(.text)
    FLASH_SetLatency                         0x08008315   Thumb Code     6  stm32f2xx_flash.o(.text)
    FLASH_PrefetchBufferCmd                  0x0800831b   Thumb Code    30  stm32f2xx_flash.o(.text)
    FLASH_InstructionCacheCmd                0x08008339   Thumb Code    30  stm32f2xx_flash.o(.text)
    FLASH_DataCacheCmd                       0x08008357   Thumb Code    30  stm32f2xx_flash.o(.text)
    FLASH_InstructionCacheReset              0x08008375   Thumb Code    14  stm32f2xx_flash.o(.text)
    FLASH_DataCacheReset                     0x08008383   Thumb Code    14  stm32f2xx_flash.o(.text)
    FLASH_Unlock                             0x08008391   Thumb Code    26  stm32f2xx_flash.o(.text)
    FLASH_Lock                               0x080083ab   Thumb Code    18  stm32f2xx_flash.o(.text)
    FLASH_GetStatus                          0x080083bd   Thumb Code    74  stm32f2xx_flash.o(.text)
    FLASH_WaitForLastOperation               0x08008407   Thumb Code    34  stm32f2xx_flash.o(.text)
    FLASH_EraseSector                        0x08008429   Thumb Code   140  stm32f2xx_flash.o(.text)
    FLASH_EraseAllSectors                    0x080084b5   Thumb Code   112  stm32f2xx_flash.o(.text)
    FLASH_ProgramDoubleWord                  0x08008525   Thumb Code    86  stm32f2xx_flash.o(.text)
    FLASH_ProgramWord                        0x0800857b   Thumb Code    82  stm32f2xx_flash.o(.text)
    FLASH_ProgramHalfWord                    0x080085cd   Thumb Code    82  stm32f2xx_flash.o(.text)
    FLASH_ProgramByte                        0x0800861f   Thumb Code    78  stm32f2xx_flash.o(.text)
    FLASH_OB_Unlock                          0x0800866d   Thumb Code    26  stm32f2xx_flash.o(.text)
    FLASH_OB_Lock                            0x08008687   Thumb Code    18  stm32f2xx_flash.o(.text)
    FLASH_OB_WRPConfig                       0x08008699   Thumb Code    54  stm32f2xx_flash.o(.text)
    FLASH_OB_RDPConfig                       0x080086cf   Thumb Code    24  stm32f2xx_flash.o(.text)
    FLASH_OB_UserConfig                      0x080086e7   Thumb Code    68  stm32f2xx_flash.o(.text)
    FLASH_OB_BORConfig                       0x0800872b   Thumb Code    22  stm32f2xx_flash.o(.text)
    FLASH_OB_Launch                          0x08008741   Thumb Code    26  stm32f2xx_flash.o(.text)
    FLASH_OB_GetUser                         0x0800875b   Thumb Code    10  stm32f2xx_flash.o(.text)
    FLASH_OB_GetWRP                          0x08008765   Thumb Code     8  stm32f2xx_flash.o(.text)
    FLASH_OB_GetRDP                          0x0800876d   Thumb Code    20  stm32f2xx_flash.o(.text)
    FLASH_OB_GetBOR                          0x08008781   Thumb Code    10  stm32f2xx_flash.o(.text)
    FLASH_ITConfig                           0x0800878b   Thumb Code    34  stm32f2xx_flash.o(.text)
    FLASH_GetFlagStatus                      0x080087ad   Thumb Code    22  stm32f2xx_flash.o(.text)
    FLASH_ClearFlag                          0x080087c3   Thumb Code     8  stm32f2xx_flash.o(.text)
    GPIO_DeInit                              0x080087d1   Thumb Code   220  stm32f2xx_gpio.o(.text)
    GPIO_Init                                0x080088ad   Thumb Code   144  stm32f2xx_gpio.o(.text)
    GPIO_StructInit                          0x0800893d   Thumb Code    18  stm32f2xx_gpio.o(.text)
    GPIO_PinLockConfig                       0x0800894f   Thumb Code    34  stm32f2xx_gpio.o(.text)
    GPIO_ReadInputDataBit                    0x08008971   Thumb Code    18  stm32f2xx_gpio.o(.text)
    GPIO_ReadInputData                       0x08008983   Thumb Code     8  stm32f2xx_gpio.o(.text)
    GPIO_ReadOutputDataBit                   0x0800898b   Thumb Code    18  stm32f2xx_gpio.o(.text)
    GPIO_ReadOutputData                      0x0800899d   Thumb Code     8  stm32f2xx_gpio.o(.text)
    GPIO_SetBits                             0x080089a5   Thumb Code     4  stm32f2xx_gpio.o(.text)
    GPIO_ResetBits                           0x080089a9   Thumb Code     4  stm32f2xx_gpio.o(.text)
    GPIO_WriteBit                            0x080089ad   Thumb Code    10  stm32f2xx_gpio.o(.text)
    GPIO_Write                               0x080089b7   Thumb Code     4  stm32f2xx_gpio.o(.text)
    GPIO_ToggleBits                          0x080089bb   Thumb Code     8  stm32f2xx_gpio.o(.text)
    GPIO_PinAFConfig                         0x080089c3   Thumb Code    70  stm32f2xx_gpio.o(.text)
    I2C_DeInit                               0x08008a2d   Thumb Code    82  stm32f2xx_i2c.o(.text)
    I2C_Init                                 0x08008a7f   Thumb Code   218  stm32f2xx_i2c.o(.text)
    I2C_StructInit                           0x08008b59   Thumb Code    30  stm32f2xx_i2c.o(.text)
    I2C_Cmd                                  0x08008b77   Thumb Code    24  stm32f2xx_i2c.o(.text)
    I2C_GenerateSTART                        0x08008b8f   Thumb Code    24  stm32f2xx_i2c.o(.text)
    I2C_GenerateSTOP                         0x08008ba7   Thumb Code    24  stm32f2xx_i2c.o(.text)
    I2C_Send7bitAddress                      0x08008bbf   Thumb Code    16  stm32f2xx_i2c.o(.text)
    I2C_AcknowledgeConfig                    0x08008bcf   Thumb Code    24  stm32f2xx_i2c.o(.text)
    I2C_OwnAddress2Config                    0x08008be7   Thumb Code    22  stm32f2xx_i2c.o(.text)
    I2C_DualAddressCmd                       0x08008bfd   Thumb Code    24  stm32f2xx_i2c.o(.text)
    I2C_GeneralCallCmd                       0x08008c15   Thumb Code    24  stm32f2xx_i2c.o(.text)
    I2C_SoftwareResetCmd                     0x08008c2d   Thumb Code    22  stm32f2xx_i2c.o(.text)
    I2C_StretchClockCmd                      0x08008c43   Thumb Code    24  stm32f2xx_i2c.o(.text)
    I2C_FastModeDutyCycleConfig              0x08008c5b   Thumb Code    28  stm32f2xx_i2c.o(.text)
    I2C_NACKPositionConfig                   0x08008c77   Thumb Code    28  stm32f2xx_i2c.o(.text)
    I2C_SMBusAlertConfig                     0x08008c93   Thumb Code    28  stm32f2xx_i2c.o(.text)
    I2C_ARPCmd                               0x08008caf   Thumb Code    24  stm32f2xx_i2c.o(.text)
    I2C_SendData                             0x08008cc7   Thumb Code     4  stm32f2xx_i2c.o(.text)
    I2C_ReceiveData                          0x08008ccb   Thumb Code     8  stm32f2xx_i2c.o(.text)
    I2C_TransmitPEC                          0x08008cd3   Thumb Code    24  stm32f2xx_i2c.o(.text)
    I2C_PECPositionConfig                    0x08008ceb   Thumb Code    28  stm32f2xx_i2c.o(.text)
    I2C_CalculatePEC                         0x08008d07   Thumb Code    24  stm32f2xx_i2c.o(.text)
    I2C_GetPEC                               0x08008d1f   Thumb Code     8  stm32f2xx_i2c.o(.text)
    I2C_DMACmd                               0x08008d27   Thumb Code    24  stm32f2xx_i2c.o(.text)
    I2C_DMALastTransferCmd                   0x08008d3f   Thumb Code    24  stm32f2xx_i2c.o(.text)
    I2C_ReadRegister                         0x08008d57   Thumb Code    22  stm32f2xx_i2c.o(.text)
    I2C_ITConfig                             0x08008d6d   Thumb Code    18  stm32f2xx_i2c.o(.text)
    I2C_CheckEvent                           0x08008d7f   Thumb Code    42  stm32f2xx_i2c.o(.text)
    I2C_GetLastEvent                         0x08008da9   Thumb Code    26  stm32f2xx_i2c.o(.text)
    I2C_GetFlagStatus                        0x08008dc3   Thumb Code    58  stm32f2xx_i2c.o(.text)
    I2C_ClearFlag                            0x08008dfd   Thumb Code    12  stm32f2xx_i2c.o(.text)
    I2C_GetITStatus                          0x08008e09   Thumb Code    64  stm32f2xx_i2c.o(.text)
    I2C_ClearITPendingBit                    0x08008e49   Thumb Code    12  stm32f2xx_i2c.o(.text)
    RCC_DeInit                               0x08008e55   Thumb Code    60  stm32f2xx_rcc.o(.text)
    RCC_HSEConfig                            0x08008e91   Thumb Code    14  stm32f2xx_rcc.o(.text)
    RCC_GetFlagStatus                        0x08008e9f   Thumb Code    60  stm32f2xx_rcc.o(.text)
    RCC_WaitForHSEStartUp                    0x08008edb   Thumb Code    56  stm32f2xx_rcc.o(.text)
    RCC_AdjustHSICalibrationValue            0x08008f13   Thumb Code    20  stm32f2xx_rcc.o(.text)
    RCC_HSICmd                               0x08008f27   Thumb Code     6  stm32f2xx_rcc.o(.text)
    RCC_LSEConfig                            0x08008f2d   Thumb Code    46  stm32f2xx_rcc.o(.text)
    RCC_LSICmd                               0x08008f5b   Thumb Code     6  stm32f2xx_rcc.o(.text)
    RCC_PLLConfig                            0x08008f61   Thumb Code    32  stm32f2xx_rcc.o(.text)
    RCC_PLLCmd                               0x08008f81   Thumb Code     6  stm32f2xx_rcc.o(.text)
    RCC_PLLI2SConfig                         0x08008f87   Thumb Code    14  stm32f2xx_rcc.o(.text)
    RCC_PLLI2SCmd                            0x08008f95   Thumb Code     6  stm32f2xx_rcc.o(.text)
    RCC_ClockSecuritySystemCmd               0x08008f9b   Thumb Code     6  stm32f2xx_rcc.o(.text)
    RCC_MCO1Config                           0x08008fa1   Thumb Code    28  stm32f2xx_rcc.o(.text)
    RCC_MCO2Config                           0x08008fbd   Thumb Code    28  stm32f2xx_rcc.o(.text)
    RCC_SYSCLKConfig                         0x08008fd9   Thumb Code    20  stm32f2xx_rcc.o(.text)
    RCC_GetSYSCLKSource                      0x08008fed   Thumb Code    12  stm32f2xx_rcc.o(.text)
    RCC_HCLKConfig                           0x08008ff9   Thumb Code    20  stm32f2xx_rcc.o(.text)
    RCC_PCLK1Config                          0x0800900d   Thumb Code    20  stm32f2xx_rcc.o(.text)
    RCC_PCLK2Config                          0x08009021   Thumb Code    22  stm32f2xx_rcc.o(.text)
    RCC_GetClocksFreq                        0x08009037   Thumb Code   222  stm32f2xx_rcc.o(.text)
    RCC_RTCCLKConfig                         0x08009115   Thumb Code    54  stm32f2xx_rcc.o(.text)
    RCC_RTCCLKCmd                            0x0800914b   Thumb Code     8  stm32f2xx_rcc.o(.text)
    RCC_BackupResetCmd                       0x08009153   Thumb Code     8  stm32f2xx_rcc.o(.text)
    RCC_I2SCLKConfig                         0x0800915b   Thumb Code     6  stm32f2xx_rcc.o(.text)
    RCC_AHB1PeriphClockCmd                   0x08009161   Thumb Code    34  stm32f2xx_rcc.o(.text)
    RCC_AHB2PeriphClockCmd                   0x08009183   Thumb Code    34  stm32f2xx_rcc.o(.text)
    RCC_AHB3PeriphClockCmd                   0x080091a5   Thumb Code    34  stm32f2xx_rcc.o(.text)
    RCC_APB1PeriphClockCmd                   0x080091c7   Thumb Code    34  stm32f2xx_rcc.o(.text)
    RCC_APB2PeriphClockCmd                   0x080091e9   Thumb Code    34  stm32f2xx_rcc.o(.text)
    RCC_AHB1PeriphResetCmd                   0x0800920b   Thumb Code    34  stm32f2xx_rcc.o(.text)
    RCC_AHB2PeriphResetCmd                   0x0800922d   Thumb Code    72  stm32f2xx_rcc.o(.text)
    RCC_AHB3PeriphResetCmd                   0x08009275   Thumb Code    34  stm32f2xx_rcc.o(.text)
    RCC_APB1PeriphResetCmd                   0x08009297   Thumb Code    34  stm32f2xx_rcc.o(.text)
    RCC_APB2PeriphResetCmd                   0x080092b9   Thumb Code    34  stm32f2xx_rcc.o(.text)
    RCC_AHB1PeriphClockLPModeCmd             0x080092db   Thumb Code    34  stm32f2xx_rcc.o(.text)
    RCC_AHB2PeriphClockLPModeCmd             0x080092fd   Thumb Code    34  stm32f2xx_rcc.o(.text)
    RCC_AHB3PeriphClockLPModeCmd             0x0800931f   Thumb Code    34  stm32f2xx_rcc.o(.text)
    RCC_APB1PeriphClockLPModeCmd             0x08009341   Thumb Code    34  stm32f2xx_rcc.o(.text)
    RCC_APB2PeriphClockLPModeCmd             0x08009363   Thumb Code    34  stm32f2xx_rcc.o(.text)
    RCC_ITConfig                             0x08009385   Thumb Code    34  stm32f2xx_rcc.o(.text)
    RCC_ClearFlag                            0x080093a7   Thumb Code    18  stm32f2xx_rcc.o(.text)
    RCC_GetITStatus                          0x080093b9   Thumb Code    22  stm32f2xx_rcc.o(.text)
    RCC_ClearITPendingBit                    0x080093cf   Thumb Code     8  stm32f2xx_rcc.o(.text)
    SPI_I2S_DeInit                           0x080093dd   Thumb Code    76  stm32f2xx_spi.o(.text)
    SPI_Init                                 0x08009429   Thumb Code    60  stm32f2xx_spi.o(.text)
    I2S_Init                                 0x08009465   Thumb Code   282  stm32f2xx_spi.o(.text)
    SPI_StructInit                           0x0800957f   Thumb Code    24  stm32f2xx_spi.o(.text)
    I2S_StructInit                           0x08009597   Thumb Code    20  stm32f2xx_spi.o(.text)
    SPI_Cmd                                  0x080095ab   Thumb Code    24  stm32f2xx_spi.o(.text)
    I2S_Cmd                                  0x080095c3   Thumb Code    24  stm32f2xx_spi.o(.text)
    SPI_DataSizeConfig                       0x080095db   Thumb Code    18  stm32f2xx_spi.o(.text)
    SPI_BiDirectionalLineConfig              0x080095ed   Thumb Code    28  stm32f2xx_spi.o(.text)
    SPI_NSSInternalSoftwareConfig            0x08009609   Thumb Code    30  stm32f2xx_spi.o(.text)
    SPI_SSOutputCmd                          0x08009627   Thumb Code    24  stm32f2xx_spi.o(.text)
    SPI_TIModeCmd                            0x0800963f   Thumb Code    24  stm32f2xx_spi.o(.text)
    SPI_I2S_ReceiveData                      0x08009657   Thumb Code     6  stm32f2xx_spi.o(.text)
    SPI_I2S_SendData                         0x0800965d   Thumb Code     4  stm32f2xx_spi.o(.text)
    SPI_CalculateCRC                         0x08009661   Thumb Code    24  stm32f2xx_spi.o(.text)
    SPI_TransmitCRC                          0x08009679   Thumb Code    10  stm32f2xx_spi.o(.text)
    SPI_GetCRC                               0x08009683   Thumb Code    16  stm32f2xx_spi.o(.text)
    SPI_GetCRCPolynomial                     0x08009693   Thumb Code     6  stm32f2xx_spi.o(.text)
    SPI_I2S_DMACmd                           0x08009699   Thumb Code    18  stm32f2xx_spi.o(.text)
    SPI_I2S_ITConfig                         0x080096ab   Thumb Code    32  stm32f2xx_spi.o(.text)
    SPI_I2S_GetFlagStatus                    0x080096cb   Thumb Code    18  stm32f2xx_spi.o(.text)
    SPI_I2S_ClearFlag                        0x080096dd   Thumb Code     6  stm32f2xx_spi.o(.text)
    SPI_I2S_GetITStatus                      0x080096e3   Thumb Code    52  stm32f2xx_spi.o(.text)
    SPI_I2S_ClearITPendingBit                0x08009717   Thumb Code    20  stm32f2xx_spi.o(.text)
    SYSCFG_DeInit                            0x08009741   Thumb Code    22  stm32f2xx_syscfg.o(.text)
    SYSCFG_MemoryRemapConfig                 0x08009757   Thumb Code     6  stm32f2xx_syscfg.o(.text)
    SYSCFG_EXTILineConfig                    0x0800975d   Thumb Code    66  stm32f2xx_syscfg.o(.text)
    SYSCFG_ETH_MediaInterfaceConfig          0x0800979f   Thumb Code     6  stm32f2xx_syscfg.o(.text)
    SYSCFG_CompensationCellCmd               0x080097a5   Thumb Code     6  stm32f2xx_syscfg.o(.text)
    SYSCFG_GetCompensationCellStatus         0x080097ab   Thumb Code    22  stm32f2xx_syscfg.o(.text)
    ADC_DeInit                               0x080097cd   Thumb Code    22  stm32f2xx_adc.o(.text)
    ADC_Init                                 0x080097e3   Thumb Code    74  stm32f2xx_adc.o(.text)
    ADC_StructInit                           0x0800982d   Thumb Code    20  stm32f2xx_adc.o(.text)
    ADC_CommonInit                           0x08009841   Thumb Code    34  stm32f2xx_adc.o(.text)
    ADC_CommonStructInit                     0x08009863   Thumb Code    12  stm32f2xx_adc.o(.text)
    ADC_Cmd                                  0x0800986f   Thumb Code    22  stm32f2xx_adc.o(.text)
    ADC_AnalogWatchdogCmd                    0x08009885   Thumb Code    16  stm32f2xx_adc.o(.text)
    ADC_AnalogWatchdogThresholdsConfig       0x08009895   Thumb Code     6  stm32f2xx_adc.o(.text)
    ADC_AnalogWatchdogSingleChannelConfig    0x0800989b   Thumb Code    16  stm32f2xx_adc.o(.text)
    ADC_TempSensorVrefintCmd                 0x080098ab   Thumb Code    34  stm32f2xx_adc.o(.text)
    ADC_VBATCmd                              0x080098cd   Thumb Code    34  stm32f2xx_adc.o(.text)
    ADC_RegularChannelConfig                 0x080098ef   Thumb Code   184  stm32f2xx_adc.o(.text)
    ADC_SoftwareStartConv                    0x080099a7   Thumb Code    10  stm32f2xx_adc.o(.text)
    ADC_GetSoftwareStartConvStatus           0x080099b1   Thumb Code    20  stm32f2xx_adc.o(.text)
    ADC_EOCOnEachRegularChannelCmd           0x080099c5   Thumb Code    22  stm32f2xx_adc.o(.text)
    ADC_ContinuousModeCmd                    0x080099db   Thumb Code    22  stm32f2xx_adc.o(.text)
    ADC_DiscModeChannelCountConfig           0x080099f1   Thumb Code    24  stm32f2xx_adc.o(.text)
    ADC_DiscModeCmd                          0x08009a09   Thumb Code    22  stm32f2xx_adc.o(.text)
    ADC_GetConversionValue                   0x08009a1f   Thumb Code     8  stm32f2xx_adc.o(.text)
    ADC_GetMultiModeConversionValue          0x08009a27   Thumb Code     8  stm32f2xx_adc.o(.text)
    ADC_DMACmd                               0x08009a2f   Thumb Code    22  stm32f2xx_adc.o(.text)
    ADC_DMARequestAfterLastTransferCmd       0x08009a45   Thumb Code    22  stm32f2xx_adc.o(.text)
    ADC_MultiModeDMARequestAfterLastTransferCmd 0x08009a5b   Thumb Code    34  stm32f2xx_adc.o(.text)
    ADC_InjectedChannelConfig                0x08009a7d   Thumb Code   130  stm32f2xx_adc.o(.text)
    ADC_InjectedSequencerLengthConfig        0x08009aff   Thumb Code    24  stm32f2xx_adc.o(.text)
    ADC_SetInjectedOffset                    0x08009b17   Thumb Code    20  stm32f2xx_adc.o(.text)
    ADC_ExternalTrigInjectedConvConfig       0x08009b2b   Thumb Code    16  stm32f2xx_adc.o(.text)
    ADC_ExternalTrigInjectedConvEdgeConfig   0x08009b3b   Thumb Code    16  stm32f2xx_adc.o(.text)
    ADC_SoftwareStartInjectedConv            0x08009b4b   Thumb Code    10  stm32f2xx_adc.o(.text)
    ADC_GetSoftwareStartInjectedConvCmdStatus 0x08009b55   Thumb Code    20  stm32f2xx_adc.o(.text)
    ADC_AutoInjectedConvCmd                  0x08009b69   Thumb Code    22  stm32f2xx_adc.o(.text)
    ADC_InjectedDiscModeCmd                  0x08009b7f   Thumb Code    22  stm32f2xx_adc.o(.text)
    ADC_GetInjectedConversionValue           0x08009b95   Thumb Code    28  stm32f2xx_adc.o(.text)
    ADC_ITConfig                             0x08009bb1   Thumb Code    56  stm32f2xx_adc.o(.text)
    ADC_GetFlagStatus                        0x08009be9   Thumb Code    18  stm32f2xx_adc.o(.text)
    ADC_ClearFlag                            0x08009bfb   Thumb Code     6  stm32f2xx_adc.o(.text)
    ADC_GetITStatus                          0x08009c01   Thumb Code    38  stm32f2xx_adc.o(.text)
    ADC_ClearITPendingBit                    0x08009c27   Thumb Code    10  stm32f2xx_adc.o(.text)
    WWDG_DeInit                              0x08009c31   Thumb Code    22  stm32f2xx_wwdg.o(.text)
    WWDG_SetPrescaler                        0x08009c47   Thumb Code    18  stm32f2xx_wwdg.o(.text)
    WWDG_SetWindowValue                      0x08009c59   Thumb Code    34  stm32f2xx_wwdg.o(.text)
    WWDG_EnableIT                            0x08009c7b   Thumb Code     8  stm32f2xx_wwdg.o(.text)
    WWDG_SetCounter                          0x08009c83   Thumb Code    12  stm32f2xx_wwdg.o(.text)
    WWDG_Enable                              0x08009c8f   Thumb Code    12  stm32f2xx_wwdg.o(.text)
    WWDG_GetFlagStatus                       0x08009c9b   Thumb Code    18  stm32f2xx_wwdg.o(.text)
    WWDG_ClearFlag                           0x08009cad   Thumb Code    10  stm32f2xx_wwdg.o(.text)
    Reset_Handler                            0x08009cc1   Thumb Code     8  startup_stm32f2xx.o(.text)
    SVC_Handler                              0x08009cd3   Thumb Code     2  startup_stm32f2xx.o(.text)
    PendSV_Handler                           0x08009cd7   Thumb Code     2  startup_stm32f2xx.o(.text)
    ADC_IRQHandler                           0x08009cdb   Thumb Code     0  startup_stm32f2xx.o(.text)
    CAN1_RX0_IRQHandler                      0x08009cdb   Thumb Code     0  startup_stm32f2xx.o(.text)
    CAN1_RX1_IRQHandler                      0x08009cdb   Thumb Code     0  startup_stm32f2xx.o(.text)
    CAN1_SCE_IRQHandler                      0x08009cdb   Thumb Code     0  startup_stm32f2xx.o(.text)
    CAN1_TX_IRQHandler                       0x08009cdb   Thumb Code     0  startup_stm32f2xx.o(.text)
    CAN2_RX0_IRQHandler                      0x08009cdb   Thumb Code     0  startup_stm32f2xx.o(.text)
    CAN2_RX1_IRQHandler                      0x08009cdb   Thumb Code     0  startup_stm32f2xx.o(.text)
    CAN2_SCE_IRQHandler                      0x08009cdb   Thumb Code     0  startup_stm32f2xx.o(.text)
    CAN2_TX_IRQHandler                       0x08009cdb   Thumb Code     0  startup_stm32f2xx.o(.text)
    CRYP_IRQHandler                          0x08009cdb   Thumb Code     0  startup_stm32f2xx.o(.text)
    DCMI_IRQHandler                          0x08009cdb   Thumb Code     0  startup_stm32f2xx.o(.text)
    DMA1_Stream0_IRQHandler                  0x08009cdb   Thumb Code     0  startup_stm32f2xx.o(.text)
    DMA1_Stream1_IRQHandler                  0x08009cdb   Thumb Code     0  startup_stm32f2xx.o(.text)
    DMA1_Stream3_IRQHandler                  0x08009cdb   Thumb Code     0  startup_stm32f2xx.o(.text)
    DMA1_Stream5_IRQHandler                  0x08009cdb   Thumb Code     0  startup_stm32f2xx.o(.text)
    DMA1_Stream6_IRQHandler                  0x08009cdb   Thumb Code     0  startup_stm32f2xx.o(.text)
    DMA1_Stream7_IRQHandler                  0x08009cdb   Thumb Code     0  startup_stm32f2xx.o(.text)
    DMA2_Stream0_IRQHandler                  0x08009cdb   Thumb Code     0  startup_stm32f2xx.o(.text)
    DMA2_Stream1_IRQHandler                  0x08009cdb   Thumb Code     0  startup_stm32f2xx.o(.text)
    DMA2_Stream2_IRQHandler                  0x08009cdb   Thumb Code     0  startup_stm32f2xx.o(.text)
    DMA2_Stream3_IRQHandler                  0x08009cdb   Thumb Code     0  startup_stm32f2xx.o(.text)
    DMA2_Stream4_IRQHandler                  0x08009cdb   Thumb Code     0  startup_stm32f2xx.o(.text)
    DMA2_Stream5_IRQHandler                  0x08009cdb   Thumb Code     0  startup_stm32f2xx.o(.text)
    DMA2_Stream6_IRQHandler                  0x08009cdb   Thumb Code     0  startup_stm32f2xx.o(.text)
    DMA2_Stream7_IRQHandler                  0x08009cdb   Thumb Code     0  startup_stm32f2xx.o(.text)
    ETH_IRQHandler                           0x08009cdb   Thumb Code     0  startup_stm32f2xx.o(.text)
    ETH_WKUP_IRQHandler                      0x08009cdb   Thumb Code     0  startup_stm32f2xx.o(.text)
    EXTI0_IRQHandler                         0x08009cdb   Thumb Code     0  startup_stm32f2xx.o(.text)
    EXTI15_10_IRQHandler                     0x08009cdb   Thumb Code     0  startup_stm32f2xx.o(.text)
    EXTI1_IRQHandler                         0x08009cdb   Thumb Code     0  startup_stm32f2xx.o(.text)
    EXTI2_IRQHandler                         0x08009cdb   Thumb Code     0  startup_stm32f2xx.o(.text)
    EXTI3_IRQHandler                         0x08009cdb   Thumb Code     0  startup_stm32f2xx.o(.text)
    EXTI4_IRQHandler                         0x08009cdb   Thumb Code     0  startup_stm32f2xx.o(.text)
    EXTI9_5_IRQHandler                       0x08009cdb   Thumb Code     0  startup_stm32f2xx.o(.text)
    FLASH_IRQHandler                         0x08009cdb   Thumb Code     0  startup_stm32f2xx.o(.text)
    FSMC_IRQHandler                          0x08009cdb   Thumb Code     0  startup_stm32f2xx.o(.text)
    HASH_RNG_IRQHandler                      0x08009cdb   Thumb Code     0  startup_stm32f2xx.o(.text)
    I2C1_ER_IRQHandler                       0x08009cdb   Thumb Code     0  startup_stm32f2xx.o(.text)
    I2C1_EV_IRQHandler                       0x08009cdb   Thumb Code     0  startup_stm32f2xx.o(.text)
    I2C2_ER_IRQHandler                       0x08009cdb   Thumb Code     0  startup_stm32f2xx.o(.text)
    I2C2_EV_IRQHandler                       0x08009cdb   Thumb Code     0  startup_stm32f2xx.o(.text)
    I2C3_ER_IRQHandler                       0x08009cdb   Thumb Code     0  startup_stm32f2xx.o(.text)
    I2C3_EV_IRQHandler                       0x08009cdb   Thumb Code     0  startup_stm32f2xx.o(.text)
    OTG_FS_IRQHandler                        0x08009cdb   Thumb Code     0  startup_stm32f2xx.o(.text)
    OTG_FS_WKUP_IRQHandler                   0x08009cdb   Thumb Code     0  startup_stm32f2xx.o(.text)
    OTG_HS_EP1_IN_IRQHandler                 0x08009cdb   Thumb Code     0  startup_stm32f2xx.o(.text)
    OTG_HS_EP1_OUT_IRQHandler                0x08009cdb   Thumb Code     0  startup_stm32f2xx.o(.text)
    OTG_HS_IRQHandler                        0x08009cdb   Thumb Code     0  startup_stm32f2xx.o(.text)
    OTG_HS_WKUP_IRQHandler                   0x08009cdb   Thumb Code     0  startup_stm32f2xx.o(.text)
    PVD_IRQHandler                           0x08009cdb   Thumb Code     0  startup_stm32f2xx.o(.text)
    RCC_IRQHandler                           0x08009cdb   Thumb Code     0  startup_stm32f2xx.o(.text)
    RTC_Alarm_IRQHandler                     0x08009cdb   Thumb Code     0  startup_stm32f2xx.o(.text)
    RTC_WKUP_IRQHandler                      0x08009cdb   Thumb Code     0  startup_stm32f2xx.o(.text)
    SDIO_IRQHandler                          0x08009cdb   Thumb Code     0  startup_stm32f2xx.o(.text)
    SPI1_IRQHandler                          0x08009cdb   Thumb Code     0  startup_stm32f2xx.o(.text)
    SPI2_IRQHandler                          0x08009cdb   Thumb Code     0  startup_stm32f2xx.o(.text)
    SPI3_IRQHandler                          0x08009cdb   Thumb Code     0  startup_stm32f2xx.o(.text)
    TAMP_STAMP_IRQHandler                    0x08009cdb   Thumb Code     0  startup_stm32f2xx.o(.text)
    TIM1_BRK_TIM9_IRQHandler                 0x08009cdb   Thumb Code     0  startup_stm32f2xx.o(.text)
    TIM1_CC_IRQHandler                       0x08009cdb   Thumb Code     0  startup_stm32f2xx.o(.text)
    TIM1_TRG_COM_TIM11_IRQHandler            0x08009cdb   Thumb Code     0  startup_stm32f2xx.o(.text)
    TIM1_UP_TIM10_IRQHandler                 0x08009cdb   Thumb Code     0  startup_stm32f2xx.o(.text)
    TIM2_IRQHandler                          0x08009cdb   Thumb Code     0  startup_stm32f2xx.o(.text)
    TIM3_IRQHandler                          0x08009cdb   Thumb Code     0  startup_stm32f2xx.o(.text)
    TIM4_IRQHandler                          0x08009cdb   Thumb Code     0  startup_stm32f2xx.o(.text)
    TIM5_IRQHandler                          0x08009cdb   Thumb Code     0  startup_stm32f2xx.o(.text)
    TIM6_DAC_IRQHandler                      0x08009cdb   Thumb Code     0  startup_stm32f2xx.o(.text)
    TIM7_IRQHandler                          0x08009cdb   Thumb Code     0  startup_stm32f2xx.o(.text)
    TIM8_BRK_TIM12_IRQHandler                0x08009cdb   Thumb Code     0  startup_stm32f2xx.o(.text)
    TIM8_CC_IRQHandler                       0x08009cdb   Thumb Code     0  startup_stm32f2xx.o(.text)
    TIM8_TRG_COM_TIM14_IRQHandler            0x08009cdb   Thumb Code     0  startup_stm32f2xx.o(.text)
    TIM8_UP_TIM13_IRQHandler                 0x08009cdb   Thumb Code     0  startup_stm32f2xx.o(.text)
    UART4_IRQHandler                         0x08009cdb   Thumb Code     0  startup_stm32f2xx.o(.text)
    UART5_IRQHandler                         0x08009cdb   Thumb Code     0  startup_stm32f2xx.o(.text)
    USART1_IRQHandler                        0x08009cdb   Thumb Code     0  startup_stm32f2xx.o(.text)
    USART2_IRQHandler                        0x08009cdb   Thumb Code     0  startup_stm32f2xx.o(.text)
    USART3_IRQHandler                        0x08009cdb   Thumb Code     0  startup_stm32f2xx.o(.text)
    USART6_IRQHandler                        0x08009cdb   Thumb Code     0  startup_stm32f2xx.o(.text)
    WWDG_IRQHandler                          0x08009cdb   Thumb Code     0  startup_stm32f2xx.o(.text)
    SystemInit                               0x08009da5   Thumb Code    74  system_stm32f2xx.o(.text)
    SystemCoreClockUpdate                    0x08009def   Thumb Code   174  system_stm32f2xx.o(.text)
    ETH_DeInit                               0x08009ee1   Thumb Code    22  stm32f2x7_eth.o(.text)
    ETH_StructInit                           0x08009ef7   Thumb Code   178  stm32f2x7_eth.o(.text)
    ETH_Init                                 0x08009fa9   Thumb Code   436  stm32f2x7_eth.o(.text)
    ETH_DMAReceptionCmd                      0x0800a15d   Thumb Code    30  stm32f2x7_eth.o(.text)
    ETH_DMATransmissionCmd                   0x0800a17b   Thumb Code    30  stm32f2x7_eth.o(.text)
    ETH_MACReceptionCmd                      0x0800a199   Thumb Code    30  stm32f2x7_eth.o(.text)
    ETH_FlushTransmitFIFO                    0x0800a1b7   Thumb Code    14  stm32f2x7_eth.o(.text)
    ETH_MACTransmissionCmd                   0x0800a1c5   Thumb Code    30  stm32f2x7_eth.o(.text)
    ETH_Start                                0x0800a1e3   Thumb Code    32  stm32f2x7_eth.o(.text)
    ETH_GetFlowControlBusyStatus             0x0800a203   Thumb Code    20  stm32f2x7_eth.o(.text)
    ETH_InitiatePauseControlFrame            0x0800a217   Thumb Code    14  stm32f2x7_eth.o(.text)
    ETH_BackPressureActivationCmd            0x0800a225   Thumb Code    30  stm32f2x7_eth.o(.text)
    ETH_GetMACFlagStatus                     0x0800a243   Thumb Code    20  stm32f2x7_eth.o(.text)
    ETH_GetMACITStatus                       0x0800a257   Thumb Code    20  stm32f2x7_eth.o(.text)
    ETH_MACITConfig                          0x0800a26b   Thumb Code    26  stm32f2x7_eth.o(.text)
    ETH_MACAddressConfig                     0x0800a285   Thumb Code    46  stm32f2x7_eth.o(.text)
    ETH_GetMACAddress                        0x0800a2b3   Thumb Code    36  stm32f2x7_eth.o(.text)
    ETH_MACAddressPerfectFilterCmd           0x0800a2d7   Thumb Code    38  stm32f2x7_eth.o(.text)
    ETH_MACAddressFilterConfig               0x0800a2fd   Thumb Code    40  stm32f2x7_eth.o(.text)
    ETH_MACAddressMaskBytesFilterConfig      0x0800a325   Thumb Code    32  stm32f2x7_eth.o(.text)
    ETH_Get_Received_Frame                   0x0800a345   Thumb Code   132  stm32f2x7_eth.o(.text)
    ETH_Get_Received_Frame_interrupt         0x0800a3c9   Thumb Code   268  stm32f2x7_eth.o(.text)
    ETH_Prepare_Transmit_Descriptors         0x0800a4d5   Thumb Code   222  stm32f2x7_eth.o(.text)
    ETH_DMARxDescChainInit                   0x0800a5b3   Thumb Code    82  stm32f2x7_eth.o(.text)
    ETH_CheckFrameReceived                   0x0800a605   Thumb Code   190  stm32f2x7_eth.o(.text)
    ETH_DMATxDescChainInit                   0x0800a6c3   Thumb Code    70  stm32f2x7_eth.o(.text)
    ETH_GetDMATxDescFlagStatus               0x0800a709   Thumb Code    18  stm32f2x7_eth.o(.text)
    ETH_GetDMATxDescCollisionCount           0x0800a71b   Thumb Code    10  stm32f2x7_eth.o(.text)
    ETH_SetDMATxDescOwnBit                   0x0800a725   Thumb Code    10  stm32f2x7_eth.o(.text)
    ETH_DMATxDescTransmitITConfig            0x0800a72f   Thumb Code    22  stm32f2x7_eth.o(.text)
    ETH_DMATxDescFrameSegmentConfig          0x0800a745   Thumb Code     8  stm32f2x7_eth.o(.text)
    ETH_DMATxDescChecksumInsertionConfig     0x0800a74d   Thumb Code     8  stm32f2x7_eth.o(.text)
    ETH_DMATxDescCRCCmd                      0x0800a755   Thumb Code    22  stm32f2x7_eth.o(.text)
    ETH_DMATxDescSecondAddressChainedCmd     0x0800a76b   Thumb Code    22  stm32f2x7_eth.o(.text)
    ETH_DMATxDescShortFramePaddingCmd        0x0800a781   Thumb Code    22  stm32f2x7_eth.o(.text)
    ETH_DMATxDescBufferSizeConfig            0x0800a797   Thumb Code    14  stm32f2x7_eth.o(.text)
    ETH_GetDMARxDescFlagStatus               0x0800a7a5   Thumb Code    18  stm32f2x7_eth.o(.text)
    ETH_GetDMAPTPRxDescExtendedFlagStatus    0x0800a7b7   Thumb Code    38  stm32f2x7_eth.o(.text)
    ETH_SetDMARxDescOwnBit                   0x0800a7dd   Thumb Code    10  stm32f2x7_eth.o(.text)
    ETH_GetDMARxDescFrameLength              0x0800a7e7   Thumb Code    10  stm32f2x7_eth.o(.text)
    ETH_DMARxDescReceiveITConfig             0x0800a7f1   Thumb Code    22  stm32f2x7_eth.o(.text)
    ETH_GetDMARxDescBufferSize               0x0800a807   Thumb Code    20  stm32f2x7_eth.o(.text)
    ETH_GetRxPktSize                         0x0800a81b   Thumb Code    42  stm32f2x7_eth.o(.text)
    ETH_EnhancedDescriptorCmd                0x0800a845   Thumb Code    30  stm32f2x7_eth.o(.text)
    ETH_SoftwareReset                        0x0800a863   Thumb Code    14  stm32f2x7_eth.o(.text)
    ETH_GetSoftwareResetStatus               0x0800a871   Thumb Code    20  stm32f2x7_eth.o(.text)
    ETH_GetDMAFlagStatus                     0x0800a885   Thumb Code    20  stm32f2x7_eth.o(.text)
    ETH_DMAClearFlag                         0x0800a899   Thumb Code     6  stm32f2x7_eth.o(.text)
    ETH_DMAITConfig                          0x0800a89f   Thumb Code    26  stm32f2x7_eth.o(.text)
    ETH_GetDMAITStatus                       0x0800a8b9   Thumb Code    20  stm32f2x7_eth.o(.text)
    ETH_DMAClearITPendingBit                 0x0800a8cd   Thumb Code     6  stm32f2x7_eth.o(.text)
    ETH_GetTransmitProcessState              0x0800a8d3   Thumb Code    10  stm32f2x7_eth.o(.text)
    ETH_GetReceiveProcessState               0x0800a8dd   Thumb Code    10  stm32f2x7_eth.o(.text)
    ETH_GetFlushTransmitFIFOStatus           0x0800a8e7   Thumb Code    20  stm32f2x7_eth.o(.text)
    ETH_GetDMAOverflowStatus                 0x0800a8fb   Thumb Code    20  stm32f2x7_eth.o(.text)
    ETH_GetRxOverflowMissedFrameCounter      0x0800a90f   Thumb Code    10  stm32f2x7_eth.o(.text)
    ETH_GetBufferUnavailableMissedFrameCounter 0x0800a919   Thumb Code     8  stm32f2x7_eth.o(.text)
    ETH_GetCurrentTxDescStartAddress         0x0800a921   Thumb Code     6  stm32f2x7_eth.o(.text)
    ETH_GetCurrentRxDescStartAddress         0x0800a927   Thumb Code     6  stm32f2x7_eth.o(.text)
    ETH_GetCurrentTxBufferAddress            0x0800a92d   Thumb Code     6  stm32f2x7_eth.o(.text)
    ETH_GetCurrentRxBufferAddress            0x0800a933   Thumb Code     6  stm32f2x7_eth.o(.text)
    ETH_ResumeDMATransmission                0x0800a939   Thumb Code     8  stm32f2x7_eth.o(.text)
    ETH_ResumeDMAReception                   0x0800a941   Thumb Code     8  stm32f2x7_eth.o(.text)
    ETH_SetReceiveWatchdogTimer              0x0800a949   Thumb Code     6  stm32f2x7_eth.o(.text)
    ETH_ReadPHYRegister                      0x0800a94f   Thumb Code    98  stm32f2x7_eth.o(.text)
    ETH_WritePHYRegister                     0x0800a9b1   Thumb Code    96  stm32f2x7_eth.o(.text)
    ETH_PHYLoopBackCmd                       0x0800aa11   Thumb Code    52  stm32f2x7_eth.o(.text)
    ETH_ResetWakeUpFrameFilterRegisterPointer 0x0800aa45   Thumb Code    14  stm32f2x7_eth.o(.text)
    ETH_SetWakeUpFrameFilterRegister         0x0800aa53   Thumb Code    24  stm32f2x7_eth.o(.text)
    ETH_GlobalUnicastWakeUpCmd               0x0800aa6b   Thumb Code    30  stm32f2x7_eth.o(.text)
    ETH_GetPMTFlagStatus                     0x0800aa89   Thumb Code    20  stm32f2x7_eth.o(.text)
    ETH_WakeUpFrameDetectionCmd              0x0800aa9d   Thumb Code    30  stm32f2x7_eth.o(.text)
    ETH_MagicPacketDetectionCmd              0x0800aabb   Thumb Code    30  stm32f2x7_eth.o(.text)
    ETH_PowerDownCmd                         0x0800aad9   Thumb Code    30  stm32f2x7_eth.o(.text)
    ETH_MMCCounterFullPreset                 0x0800aaf7   Thumb Code    16  stm32f2x7_eth.o(.text)
    ETH_MMCCounterHalfPreset                 0x0800ab07   Thumb Code    30  stm32f2x7_eth.o(.text)
    ETH_MMCCounterFreezeCmd                  0x0800ab25   Thumb Code    34  stm32f2x7_eth.o(.text)
    ETH_MMCResetOnReadCmd                    0x0800ab47   Thumb Code    34  stm32f2x7_eth.o(.text)
    ETH_MMCCounterRolloverCmd                0x0800ab69   Thumb Code    34  stm32f2x7_eth.o(.text)
    ETH_MMCCountersReset                     0x0800ab8b   Thumb Code    16  stm32f2x7_eth.o(.text)
    ETH_MMCITConfig                          0x0800ab9b   Thumb Code    78  stm32f2x7_eth.o(.text)
    ETH_GetMMCITStatus                       0x0800abe9   Thumb Code    84  stm32f2x7_eth.o(.text)
    ETH_GetMMCRegister                       0x0800ac3d   Thumb Code     8  stm32f2x7_eth.o(.text)
    mem_init                                 0x0800acc5   Thumb Code    80  mem.o(.text)
    mem_free                                 0x0800ad15   Thumb Code    68  mem.o(.text)
    mem_realloc                              0x0800ad59   Thumb Code   288  mem.o(.text)
    mem_malloc                               0x0800ae79   Thumb Code   228  mem.o(.text)
    mem_calloc                               0x0800af5d   Thumb Code    34  mem.o(.text)
    memp_init                                0x0800af95   Thumb Code    82  memp.o(.text)
    memp_malloc                              0x0800afe7   Thumb Code    40  memp.o(.text)
    memp_free                                0x0800b00f   Thumb Code    28  memp.o(.text)
    netif_set_gw                             0x0800b03d   Thumb Code    12  netif.o(.text)
    netif_set_netmask                        0x0800b049   Thumb Code    12  netif.o(.text)
    netif_set_ipaddr                         0x0800b055   Thumb Code   110  netif.o(.text)
    netif_set_addr                           0x0800b0c3   Thumb Code    40  netif.o(.text)
    netif_add                                0x0800b0eb   Thumb Code    98  netif.o(.text)
    netif_set_default                        0x0800b14d   Thumb Code     6  netif.o(.text)
    netif_remove                             0x0800b153   Thumb Code    74  netif.o(.text)
    netif_find                               0x0800b19d   Thumb Code    64  netif.o(.text)
    netif_set_up                             0x0800b1dd   Thumb Code    44  netif.o(.text)
    netif_set_down                           0x0800b209   Thumb Code    24  netif.o(.text)
    netif_is_up                              0x0800b221   Thumb Code    12  netif.o(.text)
    pbuf_free                                0x0800b241   Thumb Code   110  pbuf.o(.text)
    pbuf_alloc                               0x0800b2af   Thumb Code   414  pbuf.o(.text)
    pbuf_realloc                             0x0800b44d   Thumb Code   120  pbuf.o(.text)
    pbuf_header                              0x0800b4c5   Thumb Code   126  pbuf.o(.text)
    pbuf_clen                                0x0800b543   Thumb Code    18  pbuf.o(.text)
    pbuf_ref                                 0x0800b555   Thumb Code    10  pbuf.o(.text)
    pbuf_cat                                 0x0800b55f   Thumb Code    56  pbuf.o(.text)
    pbuf_chain                               0x0800b597   Thumb Code    22  pbuf.o(.text)
    pbuf_dechain                             0x0800b5ad   Thumb Code    56  pbuf.o(.text)
    pbuf_copy                                0x0800b5e5   Thumb Code   182  pbuf.o(.text)
    pbuf_copy_partial                        0x0800b69b   Thumb Code   146  pbuf.o(.text)
    pbuf_take                                0x0800b72d   Thumb Code   116  pbuf.o(.text)
    pbuf_coalesce                            0x0800b7a1   Thumb Code    60  pbuf.o(.text)
    raw_input                                0x0800b7dd   Thumb Code   100  raw.o(.text)
    raw_bind                                 0x0800b841   Thumb Code    16  raw.o(.text)
    raw_connect                              0x0800b851   Thumb Code    16  raw.o(.text)
    raw_recv                                 0x0800b861   Thumb Code     6  raw.o(.text)
    raw_sendto                               0x0800b867   Thumb Code   154  raw.o(.text)
    raw_send                                 0x0800b901   Thumb Code    18  raw.o(.text)
    raw_remove                               0x0800b913   Thumb Code    60  raw.o(.text)
    raw_new                                  0x0800b94f   Thumb Code    42  raw.o(.text)
    tcp_seg_free                             0x0800b97d   Thumb Code    32  tcp.o(.text)
    tcp_segs_free                            0x0800b99d   Thumb Code    30  tcp.o(.text)
    tcp_pcb_purge                            0x0800b9bb   Thumb Code    54  tcp.o(.text)
    tcp_slowtmr                              0x0800b9f1   Thumb Code   710  tcp.o(.text)
    tcp_pcb_remove                           0x0800bcb7   Thumb Code   146  tcp.o(.text)
    tcp_close                                0x0800bd49   Thumb Code   274  tcp.o(.text)
    tcp_update_rcv_ann_wnd                   0x0800be5b   Thumb Code    72  tcp.o(.text)
    tcp_recved                               0x0800bea3   Thumb Code    70  tcp.o(.text)
    tcp_recv_null                            0x0800bee9   Thumb Code    46  tcp.o(.text)
    tcp_fasttmr                              0x0800bf17   Thumb Code   114  tcp.o(.text)
    tcp_tmr                                  0x0800bf89   Thumb Code    30  tcp.o(.text)
    tcp_abandon                              0x0800bfa7   Thumb Code   148  tcp.o(.text)
    tcp_bind                                 0x0800c0a3   Thumb Code   228  tcp.o(.text)
    tcp_listen_with_backlog                  0x0800c18f   Thumb Code   192  tcp.o(.text)
    tcp_eff_send_mss                         0x0800c24f   Thumb Code    46  tcp.o(.text)
    tcp_next_iss                             0x0800c27d   Thumb Code    20  tcp.o(.text)
    tcp_connect                              0x0800c291   Thumb Code   308  tcp.o(.text)
    tcp_setprio                              0x0800c3c5   Thumb Code     4  tcp.o(.text)
    tcp_alloc                                0x0800c44b   Thumb Code   172  tcp.o(.text)
    tcp_new                                  0x0800c4f7   Thumb Code    10  tcp.o(.text)
    tcp_arg                                  0x0800c501   Thumb Code     4  tcp.o(.text)
    tcp_recv                                 0x0800c505   Thumb Code     6  tcp.o(.text)
    tcp_sent                                 0x0800c50b   Thumb Code     6  tcp.o(.text)
    tcp_err                                  0x0800c511   Thumb Code     6  tcp.o(.text)
    tcp_accept                               0x0800c517   Thumb Code     4  tcp.o(.text)
    tcp_poll                                 0x0800c51b   Thumb Code    10  tcp.o(.text)
    tcp_debug_state_str                      0x0800c525   Thumb Code    10  tcp.o(.text)
    tcp_input                                0x0800d355   Thumb Code  1118  tcp_in.o(.text)
    tcp_enqueue                              0x0800d86b   Thumb Code  1014  tcp_out.o(.text)
    tcp_send_ctrl                            0x0800dc61   Thumb Code    28  tcp_out.o(.text)
    tcp_write                                0x0800dc7d   Thumb Code    72  tcp_out.o(.text)
    tcp_send_empty_ack                       0x0800dcc5   Thumb Code    94  tcp_out.o(.text)
    tcp_output                               0x0800dde5   Thumb Code   474  tcp_out.o(.text)
    tcp_rst                                  0x0800dfbf   Thumb Code   170  tcp_out.o(.text)
    tcp_rexmit_rto                           0x0800e069   Thumb Code    58  tcp_out.o(.text)
    tcp_rexmit                               0x0800e0a3   Thumb Code    80  tcp_out.o(.text)
    tcp_rexmit_fast                          0x0800e0f3   Thumb Code   130  tcp_out.o(.text)
    tcp_keepalive                            0x0800e175   Thumb Code    82  tcp_out.o(.text)
    tcp_zero_window_probe                    0x0800e1c7   Thumb Code   168  tcp_out.o(.text)
    udp_input                                0x0800e271   Thumb Code   394  udp.o(.text)
    udp_bind                                 0x0800e3fb   Thumb Code   106  udp.o(.text)
    udp_sendto_if                            0x0800e465   Thumb Code   202  udp.o(.text)
    udp_sendto                               0x0800e52f   Thumb Code    46  udp.o(.text)
    udp_send                                 0x0800e55d   Thumb Code    20  udp.o(.text)
    udp_connect                              0x0800e571   Thumb Code    94  udp.o(.text)
    udp_disconnect                           0x0800e5cf   Thumb Code    28  udp.o(.text)
    udp_recv                                 0x0800e5eb   Thumb Code     6  udp.o(.text)
    udp_remove                               0x0800e5f1   Thumb Code    60  udp.o(.text)
    udp_new                                  0x0800e62d   Thumb Code    28  udp.o(.text)
    autoip_init                              0x0800e651   Thumb Code     2  autoip.o(.text)
    autoip_start                             0x0800e6f9   Thumb Code    96  autoip.o(.text)
    autoip_network_changed                   0x0800e809   Thumb Code    28  autoip.o(.text)
    autoip_stop                              0x0800e825   Thumb Code    20  autoip.o(.text)
    autoip_tmr                               0x0800e839   Thumb Code   262  autoip.o(.text)
    autoip_arp_reply                         0x0800e93f   Thumb Code   176  autoip.o(.text)
    icmp_input                               0x0800ea11   Thumb Code   368  icmp.o(.text)
    icmp_dest_unreach                        0x0800ebed   Thumb Code    18  icmp.o(.text)
    icmp_time_exceeded                       0x0800ebff   Thumb Code    18  icmp.o(.text)
    htonl                                    0x0800ec11   Thumb Code    26  inet.o(.text)
    inet_aton                                0x0800ec2b   Thumb Code   336  inet.o(.text)
    inet_addr                                0x0800ed7b   Thumb Code    24  inet.o(.text)
    inet_ntoa                                0x0800ed93   Thumb Code   112  inet.o(.text)
    htons                                    0x0800ee03   Thumb Code    12  inet.o(.text)
    ntohs                                    0x0800ee0f   Thumb Code    12  inet.o(.text)
    ntohl                                    0x0800ee1b   Thumb Code    12  inet.o(.text)
    inet_chksum_pseudo                       0x0800ee77   Thumb Code   162  inet_chksum.o(.text)
    inet_chksum                              0x0800ef19   Thumb Code    20  inet_chksum.o(.text)
    inet_chksum_pbuf                         0x0800ef2d   Thumb Code    86  inet_chksum.o(.text)
    ip_route                                 0x0800ef85   Thumb Code    70  ip.o(.text)
    ip_input                                 0x0800efcb   Thumb Code   398  ip.o(.text)
    ip_output_if                             0x0800f159   Thumb Code   246  ip.o(.text)
    ip_output                                0x0800f24f   Thumb Code    52  ip.o(.text)
    ip_addr_isbroadcast                      0x0800f299   Thumb Code    78  ip_addr.o(.text)
    ip_reass_tmr                             0x0800f393   Thumb Code    48  ip_frag.o(.text)
    ip_reass                                 0x0800f5eb   Thumb Code   410  ip_frag.o(.text)
    ip_frag                                  0x0800f785   Thumb Code   326  ip_frag.o(.text)
    etharp_tmr                               0x0800f8ff   Thumb Code   154  etharp.o(.text)
    etharp_find_addr                         0x0800fca5   Thumb Code    86  etharp.o(.text)
    etharp_ip_input                          0x0800fcfb   Thumb Code    60  etharp.o(.text)
    etharp_arp_input                         0x0800fd37   Thumb Code   332  etharp.o(.text)
    etharp_raw                               0x0800fe83   Thumb Code   212  etharp.o(.text)
    etharp_request                           0x0800ff57   Thumb Code    36  etharp.o(.text)
    etharp_query                             0x0800ff7b   Thumb Code   386  etharp.o(.text)
    etharp_output                            0x080100fd   Thumb Code   190  etharp.o(.text)
    ethernet_input                           0x080101bb   Thumb Code   122  etharp.o(.text)
    ethernetif_input                         0x0801038d   Thumb Code    44  ethernetif.o(.text)
    ethernetif_init                          0x080103b9   Thumb Code    38  ethernetif.o(.text)
    __aeabi_memcpy                           0x08010409   Thumb Code    36  memcpya.o(.text)
    __aeabi_memcpy4                          0x08010409   Thumb Code     0  memcpya.o(.text)
    __aeabi_memcpy8                          0x08010409   Thumb Code     0  memcpya.o(.text)
    __aeabi_memset                           0x0801042d   Thumb Code    14  memseta.o(.text)
    __aeabi_memset4                          0x0801042d   Thumb Code     0  memseta.o(.text)
    __aeabi_memset8                          0x0801042d   Thumb Code     0  memseta.o(.text)
    __aeabi_memclr                           0x0801043b   Thumb Code     4  memseta.o(.text)
    __aeabi_memclr4                          0x0801043b   Thumb Code     0  memseta.o(.text)
    __aeabi_memclr8                          0x0801043b   Thumb Code     0  memseta.o(.text)
    _memset$wrapper                          0x0801043f   Thumb Code    18  memseta.o(.text)
    strlen                                   0x08010451   Thumb Code    14  strlen.o(.text)
    strcmp                                   0x0801045f   Thumb Code    28  strcmp.o(.text)
    memcmp                                   0x0801047b   Thumb Code    26  memcmp.o(.text)
    strncmp                                  0x08010495   Thumb Code    30  strncmp.o(.text)
    __aeabi_dmul                             0x080104b3   Thumb Code   228  dmul.o(.text)
    __aeabi_ddiv                             0x08010597   Thumb Code   222  ddiv.o(.text)
    __aeabi_i2d                              0x08010675   Thumb Code    34  dflti.o(.text)
    __aeabi_d2iz                             0x08010697   Thumb Code    62  dfixi.o(.text)
    __aeabi_uidiv                            0x080106d5   Thumb Code     0  uidiv.o(.text)
    __aeabi_uidivmod                         0x080106d5   Thumb Code    44  uidiv.o(.text)
    __aeabi_llsr                             0x08010701   Thumb Code    32  llushr.o(.text)
    _ll_ushift_r                             0x08010701   Thumb Code     0  llushr.o(.text)
    __I$use$fp                               0x08010721   Thumb Code     0  iusefp.o(.text)
    _double_round                            0x08010721   Thumb Code    30  depilogue.o(.text)
    _double_epilogue                         0x0801073f   Thumb Code   156  depilogue.o(.text)
    __aeabi_dadd                             0x080107db   Thumb Code   322  dadd.o(.text)
    __aeabi_dsub                             0x0801091d   Thumb Code     6  dadd.o(.text)
    __aeabi_drsub                            0x08010923   Thumb Code     6  dadd.o(.text)
    __ARM_scalbn                             0x08010929   Thumb Code    46  dscalb.o(.text)
    scalbn                                   0x08010929   Thumb Code     0  dscalb.o(.text)
    __scatterload                            0x08010959   Thumb Code    28  init.o(.text)
    __scatterload_rt2                        0x08010959   Thumb Code     0  init.o(.text)
    __aeabi_llsl                             0x0801097d   Thumb Code    30  llshl.o(.text)
    _ll_shift_l                              0x0801097d   Thumb Code     0  llshl.o(.text)
    __aeabi_lasr                             0x0801099b   Thumb Code    36  llsshr.o(.text)
    _ll_sshift_r                             0x0801099b   Thumb Code     0  llsshr.o(.text)
    __aeabi_cdcmpeq                          0x080109c1   Thumb Code     0  cdcmple.o(.text)
    __aeabi_cdcmple                          0x080109c1   Thumb Code    48  cdcmple.o(.text)
    __decompress                             0x080109f1   Thumb Code     0  __dczerorl2.o(.text)
    __decompress1                            0x080109f1   Thumb Code    86  __dczerorl2.o(.text)
    Long Thumb to Thumb Veneer to ram_function 0x08010a47   Thumb Code    10  anon$$obj.o(Veneer$$Code)
    Long Thumb to Thumb Veneer to ram_flash_copy 0x08010a51   Thumb Code    10  anon$$obj.o(Veneer$$Code)
    __0sprintf$3                             0x08010a5d   Thumb Code    34  printf3.o(i.__0sprintf$3)
    __1sprintf$3                             0x08010a5d   Thumb Code     0  printf3.o(i.__0sprintf$3)
    __2sprintf                               0x08010a5d   Thumb Code     0  printf3.o(i.__0sprintf$3)
    __kernel_poly                            0x08010a85   Thumb Code   170  poly.o(i.__kernel_poly)
    __mathlib_dbl_divzero                    0x08010b31   Thumb Code    12  dunder.o(i.__mathlib_dbl_divzero)
    __mathlib_dbl_infnan                     0x08010b41   Thumb Code     6  dunder.o(i.__mathlib_dbl_infnan)
    __mathlib_dbl_invalid                    0x08010b47   Thumb Code    12  dunder.o(i.__mathlib_dbl_invalid)
    __scatterload_copy                       0x08010b53   Thumb Code    14  handlers.o(i.__scatterload_copy)
    __scatterload_null                       0x08010b61   Thumb Code     2  handlers.o(i.__scatterload_null)
    __scatterload_zeroinit                   0x08010b63   Thumb Code    14  handlers.o(i.__scatterload_zeroinit)
    __set_errno                              0x08010b71   Thumb Code     6  errno.o(i.__set_errno)
    log                                      0x08010d41   Thumb Code   808  log.o(i.log)
    log10                                    0x0801109d   Thumb Code   198  log10.o(i.log10)
    Sin100Sample                             0x08011180   Data         882  myaudiosample.o(.constdata)
    Sin200Sample                             0x080114f2   Data         882  myaudiosample.o(.constdata)
    Sin500Sample                             0x08011864   Data         882  myaudiosample.o(.constdata)
    Sin800Sample                             0x08011bd6   Data         882  myaudiosample.o(.constdata)
    Sin1kSample                              0x08011f48   Data         882  myaudiosample.o(.constdata)
    Sin2kSample                              0x080122ba   Data         882  myaudiosample.o(.constdata)
    Sin5kSample                              0x0801262c   Data         882  myaudiosample.o(.constdata)
    Sin8kSample                              0x0801299e   Data         882  myaudiosample.o(.constdata)
    Sin10kSample                             0x08012d10   Data         882  myaudiosample.o(.constdata)
    Sin15kSample                             0x08013082   Data         882  myaudiosample.o(.constdata)
    Sin20kSample                             0x080133f4   Data         882  myaudiosample.o(.constdata)
    PageLogin                                0x08013766   Data         464  myhttpd.o(.constdata)
    Page1                                    0x08013936   Data         175  myhttpd.o(.constdata)
    PageLogErr                               0x080139e5   Data         403  myhttpd.o(.constdata)
    PageFrameMain                            0x08013b78   Data         165  myhttpd.o(.constdata)
    PageFrameIndex                           0x08013c1d   Data         245  myhttpd.o(.constdata)
    PageFrame1                               0x08013d12   Data         269  myhttpd.o(.constdata)
    PageFrame2                               0x08013e1f   Data         131  myhttpd.o(.constdata)
    PageUpdate                               0x08013ea2   Data         741  myhttpd.o(.constdata)
    PageUpdateInputErr                       0x08014187   Data         155  myhttpd.o(.constdata)
    PageUpdating                             0x08014222   Data         250  myhttpd.o(.constdata)
    tcp_backoff                              0x08014340   Data          13  tcp.o(.constdata)
    tcp_persist_backoff                      0x0801434d   Data           7  tcp.o(.constdata)
    ip_addr_any                              0x08014354   Data           4  ip_addr.o(.constdata)
    ip_addr_broadcast                        0x08014358   Data           4  ip_addr.o(.constdata)
    ethbroadcast                             0x0801435c   Data           6  etharp.o(.constdata)
    ethzero                                  0x08014362   Data           6  etharp.o(.constdata)
    __mathlib_zero                           0x080143a0   Data           8  qnan.o(.constdata)
    Region$$Table$$Base                      0x0801448c   Number         0  anon$$obj.o(Region$$Table)
    Region$$Table$$Limit                     0x080144bc   Number         0  anon$$obj.o(Region$$Table)
    ram_function                             0x20000001   Thumb Code    52  myramfunc.o(.text)
    ram_feeddog                              0x20000035   Thumb Code    34  myramfunc.o(.text)
    ram_flash_copy                           0x20000057   Thumb Code   536  myramfunc.o(.text)
    Debuger                                  0x20000294   Data           4  main.o(.data)
    DevType                                  0x20000298   Data           1  myapp.o(.data)
    DevId                                    0x20000299   Data           1  myapp.o(.data)
    TrainId                                  0x2000029a   Data           2  myapp.o(.data)
    AppStartTimer                            0x2000029c   Data           4  myapp.o(.data)
    AppStartFlag                             0x200002a0   Data           4  myapp.o(.data)
    Addr                                     0x200002a4   Data           1  myapp.o(.data)
    AmpState                                 0x200002a8   Data           4  myapp.o(.data)
    DC24V1State                              0x200002ac   Data           4  myapp.o(.data)
    DC24V2State                              0x200002b0   Data           4  myapp.o(.data)
    NoiseDetectState                         0x200002b4   Data           4  myapp.o(.data)
    CurrentState                             0x200002b8   Data           1  myapp.o(.data)
    AppVersion1                              0x200002b9   Data           1  myapp.o(.data)
    AppVersion2                              0x200002ba   Data           1  myapp.o(.data)
    AppVersion3                              0x200002bb   Data           1  myapp.o(.data)
    AppVersion4                              0x200002bc   Data           1  myapp.o(.data)
    CcState                                  0x200002bd   Data           1  myapp.o(.data)
    CcDbSet                                  0x200002c0   Data           4  myapp.o(.data)
    CcTestSet                                0x200002c4   Data           1  myapp.o(.data)
    PcDbSet                                  0x200002c8   Data           4  myapp.o(.data)
    PcDbSet_Tmp                              0x200002cc   Data           4  myapp.o(.data)
    voltotalset                              0x200002d0   Data           1  myapp.o(.data)
    NetLocalMac                              0x200002d8   Data           6  mynet.o(.data)
    NetLocalIp                               0x200002de   Data           4  mynet.o(.data)
    NetRouterIp                              0x200002e2   Data           4  mynet.o(.data)
    NetMaskIp                                0x200002e6   Data           4  mynet.o(.data)
    NetShowIp                                0x200002ea   Data           4  mynet.o(.data)
    pNetReceiveBuf                           0x200002f0   Data           4  mynet.o(.data)
    NetReceiveBufSize                        0x200002f4   Data           4  mynet.o(.data)
    pNetSendBuf                              0x200002f8   Data           4  mynet.o(.data)
    NetSendBufSize                           0x200002fc   Data           4  mynet.o(.data)
    NetStartingFlag                          0x20000300   Data           4  mynet.o(.data)
    NetListenSendFlag                        0x20000304   Data           4  mynet.o(.data)
    NetBaseIp                                0x20000308   Data           4  mynet.o(.data)
    NetLocalBroadcastIp                      0x2000030c   Data           4  mynet.o(.data)
    NetDownloadStarted                       0x20000310   Data           4  mynet.o(.data)
    NetDownloadBlocks                        0x20000314   Data           4  mynet.o(.data)
    NetDownloadBlockNum                      0x20000318   Data           4  mynet.o(.data)
    reboot_flag                              0x2000031c   Data           4  mynet.o(.data)
    NetHad                                   0x20000320   Data           4  mynet.o(.data)
    NetOkFlag                                0x20000324   Data           4  mynet.o(.data)
    EthInitStatus                            0x20000328   Data           4  myethernet.o(.data)
    EthLinkStatus                            0x2000032c   Data           1  myethernet.o(.data)
    MyTmCnt10                                0x20000330   Data           4  mytimer.o(.data)
    MyTmCnt20                                0x20000334   Data           4  mytimer.o(.data)
    MyTmCnt50                                0x20000338   Data           4  mytimer.o(.data)
    MyTmCnt100                               0x2000033c   Data           4  mytimer.o(.data)
    MyTmCnt200                               0x20000340   Data           4  mytimer.o(.data)
    MyTmCnt500                               0x20000344   Data           4  mytimer.o(.data)
    MyTmCnt1000                              0x20000348   Data           4  mytimer.o(.data)
    MyTmCnt2000                              0x2000034c   Data           4  mytimer.o(.data)
    AllBroadIpAddr                           0x20000350   Data           4  mylwip.o(.data)
    LocalBroadIpAddr                         0x20000354   Data           4  mylwip.o(.data)
    pUdpTestPcb                              0x20000358   Data           4  mylwip.o(.data)
    pUdpCommanderPcb                         0x2000035c   Data           4  mylwip.o(.data)
    pUdpControlRcvPcb                        0x20000360   Data           4  mylwip.o(.data)
    pUdpControlSendPcb                       0x20000364   Data           4  mylwip.o(.data)
    pUdpBroadcastRcvPcb                      0x20000368   Data           4  mylwip.o(.data)
    pUdpBroadcastSendPcb                     0x2000036c   Data           4  mylwip.o(.data)
    pUdpTalkRcvPcb                           0x20000370   Data           4  mylwip.o(.data)
    pUdpTalkSendPcb                          0x20000374   Data           4  mylwip.o(.data)
    pUdpPlayclkRcvPcb                        0x20000378   Data           4  mylwip.o(.data)
    pUdpPlayclkSendPcb                       0x2000037c   Data           4  mylwip.o(.data)
    pUdpDownloadRcvPcb                       0x20000380   Data           4  mylwip.o(.data)
    pUdpDownloadSendPcb                      0x20000384   Data           4  mylwip.o(.data)
    I2cTimeout                               0x2000038c   Data           4  myi2c.o(.data)
    I2cError                                 0x20000390   Data           4  myi2c.o(.data)
    DmaPlayFlag                              0x20000394   Data           4  myi2s.o(.data)
    pPlayLeftFifo                            0x20000398   Data           4  myaudio.o(.data)
    PlayLeftProduceIndex                     0x2000039c   Data           4  myaudio.o(.data)
    PlayLeftConsumeIndex                     0x200003a0   Data           4  myaudio.o(.data)
    PlayLeftWaitFlag                         0x200003a4   Data           4  myaudio.o(.data)
    PlayLeftProduceByteIndex                 0x200003a8   Data           4  myaudio.o(.data)
    PlayLeftConsumeByteIndex                 0x200003ac   Data           4  myaudio.o(.data)
    PlayLeftBytesToWrite                     0x200003b0   Data           4  myaudio.o(.data)
    PlayLeftBytesToRead                      0x200003b4   Data           4  myaudio.o(.data)
    pPlayRightFifo                           0x200003b8   Data           4  myaudio.o(.data)
    PlayRightProduceIndex                    0x200003bc   Data           4  myaudio.o(.data)
    PlayRightConsumeIndex                    0x200003c0   Data           4  myaudio.o(.data)
    PlayRightWaitFlag                        0x200003c4   Data           4  myaudio.o(.data)
    pListenLeftFifo                          0x200003c8   Data           4  myaudio.o(.data)
    ListenLeftProduceIndex                   0x200003cc   Data           4  myaudio.o(.data)
    ListenLeftConsumeIndex                   0x200003d0   Data           4  myaudio.o(.data)
    pListenRightFifo                         0x200003d4   Data           4  myaudio.o(.data)
    ListenRightProduceIndex                  0x200003d8   Data           4  myaudio.o(.data)
    ListenRightConsumeIndex                  0x200003dc   Data           4  myaudio.o(.data)
    ListenLeftFlag                           0x200003e0   Data           4  myaudio.o(.data)
    ListenLeftEnable                         0x200003e4   Data           4  myaudio.o(.data)
    ListenRightFlag                          0x200003e8   Data           4  myaudio.o(.data)
    ListenRightEnable                        0x200003ec   Data           4  myaudio.o(.data)
    AudioVolume                              0x200003f0   Data           4  myaudio.o(.data)
    AudioTreble                              0x200003f4   Data           4  myaudio.o(.data)
    AudioBass                                0x200003f8   Data           4  myaudio.o(.data)
    AudioMute                                0x200003fc   Data           4  myaudio.o(.data)
    AudioFrontPlayFlag                       0x20000400   Data           4  myaudio.o(.data)
    AudioBackPlayFlag                        0x20000404   Data           4  myaudio.o(.data)
    PlayClock                                0x20000408   Data           4  myaudio.o(.data)
    PlayClockSendFlag                        0x2000040c   Data           4  myaudio.o(.data)
    PlayClockEnable                          0x20000410   Data           4  myaudio.o(.data)
    PlayClockRcvFlag                         0x20000414   Data           4  myaudio.o(.data)
    SampleV                                  0x20000418   Data           4  myaudio.o(.data)
    SampleI                                  0x2000041c   Data           4  myaudio.o(.data)
    SampleVIbufIndex                         0x20000420   Data           4  myaudio.o(.data)
    SampleR                                  0x20000424   Data           4  myaudio.o(.data)
    SpeakerState                             0x20000428   Data           4  myaudio.o(.data)
    EmeVolume                                0x2000042c   Data           4  myaudio.o(.data)
    EmeVolumeSetFlag                         0x20000430   Data           4  myaudio.o(.data)
    EmeAudioFlag                             0x20000434   Data           4  myaudio.o(.data)
    EmeAudioTestFlag                         0x20000438   Data           4  myaudio.o(.data)
    AudioUpDownFlag                          0x2000043c   Data           4  myaudio.o(.data)
    AudioNdOffset                            0x20000440   Data           4  myaudio.o(.data)
    AudioNdFlag                              0x20000444   Data           4  myaudio.o(.data)
    AudioNdOffsetAim                         0x20000448   Data           4  myaudio.o(.data)
    AudioNdedVolume                          0x2000044c   Data           4  myaudio.o(.data)
    AudioPlayTestSinFlag                     0x20000450   Data           4  myaudio.o(.data)
    AudioPlayTestSinFrequency                0x20000454   Data           4  myaudio.o(.data)
    AudioPlayTestSinSampleIndex              0x20000458   Data           4  myaudio.o(.data)
    AudioInputSampleV                        0x2000045c   Data           4  myaudio.o(.data)
    AudioInputSampleI                        0x20000460   Data           4  myaudio.o(.data)
    AudioPlayCurrentType                     0x20000464   Data           1  myaudio.o(.data)
    VolumeOccDb                              0x20000468   Data           4  myaudio.o(.data)
    VolumeMediaDb                            0x2000046c   Data           4  myaudio.o(.data)
    VolumeToalDb                             0x20000470   Data           4  myaudio.o(.data)
    VolumeBroadcastDb                        0x20000474   Data           4  myaudio.o(.data)
    VolumeDoorDb                             0x20000478   Data           4  myaudio.o(.data)
    VolumeEemergencyDb                       0x2000047c   Data           4  myaudio.o(.data)
    VolumeTestDb                             0x20000480   Data           4  myaudio.o(.data)
    VolumeMicDb                              0x20000484   Data           4  myaudio.o(.data)
    VolumeChangeFlag                         0x20000488   Data           1  myaudio.o(.data)
    ProtocolLocalInfo                        0x20000494   Data           8  myprotocol.o(.data)
    ProtocolBroadInfo                        0x2000049c   Data           8  myprotocol.o(.data)
    ThisDebuger                              0x200004a4   Data           4  myflash.o(.data)
    StorageInfoSaveFlag                      0x200004a8   Data           4  mystorage.o(.data)
    CommanderSendAdcValueFlag                0x200004ac   Data           4  mycommander.o(.data)
    CommanderSendSampleFlag                  0x200004b0   Data           4  mycommander.o(.data)
    CommanderSendNoiseFlag                   0x200004b4   Data           4  mycommander.o(.data)
    KeyValue                                 0x200004b8   Data           4  mykey.o(.data)
    KeyUpFlag                                0x200004bc   Data           4  mykey.o(.data)
    KeyUpStep                                0x200004c0   Data           4  mykey.o(.data)
    KeyUpContinuous                          0x200004c4   Data           4  mykey.o(.data)
    KeyDownFlag                              0x200004c8   Data           4  mykey.o(.data)
    KeyDownStep                              0x200004cc   Data           4  mykey.o(.data)
    KeyDownContinuous                        0x200004d0   Data           4  mykey.o(.data)
    SelfTestStartFlag                        0x200004d4   Data           4  myselftest.o(.data)
    SelfTestStep                             0x200004d8   Data           4  myselftest.o(.data)
    SelfTest1kVCount                         0x200004dc   Data           4  myselftest.o(.data)
    SelfTest1kVVolt                          0x200004e0   Data           4  myselftest.o(.data)
    SelfTest1kICount                         0x200004e4   Data           4  myselftest.o(.data)
    SelfTest1kIA                             0x200004e8   Data           4  myselftest.o(.data)
    SelfTestAmplification                    0x200004ec   Data           4  myselftest.o(.data)
    SelfTestSnr                              0x200004f0   Data           4  myselftest.o(.data)
    SelfTestOutputPower                      0x200004f4   Data           4  myselftest.o(.data)
    UDPpcb                                   0x200004f8   Data           4  mytftpclient.o(.data)
    ServerIp                                 0x200004fc   Data           4  mytftpclient.o(.data)
    ServerPort                               0x20000500   Data           4  mytftpclient.o(.data)
    ReadFlag                                 0x20000504   Data           4  mytftpclient.o(.data)
    ReadStep                                 0x20000508   Data           4  mytftpclient.o(.data)
    ReadTimer                                0x2000050c   Data           4  mytftpclient.o(.data)
    ReadFileOffset                           0x20000510   Data           4  mytftpclient.o(.data)
    count                                    0x20000514   Data           4  myramfunc.o(.data)
    NoiseTable_dB                            0x2000051c   Data         160  mynoise.o(.data)
    NoiseTable_Adv                           0x200005bc   Data         160  mynoise.o(.data)
    NoiseTable_SampleV                       0x2000065c   Data          48  mynoise.o(.data)
    Noise12BufIndex                          0x2000068c   Data           4  mynoise.o(.data)
    Noise1Value                              0x20000690   Data           4  mynoise.o(.data)
    Noise2Value                              0x20000694   Data           4  mynoise.o(.data)
    Noise1DB                                 0x20000698   Data           4  mynoise.o(.data)
    Noise2DB                                 0x2000069c   Data           4  mynoise.o(.data)
    NoiseDB                                  0x200006a0   Data           4  mynoise.o(.data)
    NoiseMyDB                                0x200006a4   Data           4  mynoise.o(.data)
    NoiseOtherDB                             0x200006a8   Data           4  mynoise.o(.data)
    NoiseNewMyValue                          0x200006ac   Data           4  mynoise.o(.data)
    NoiseNewMyDb                             0x200006b0   Data           4  mynoise.o(.data)
    NoiseNewSensorBufIndex                   0x200006b4   Data           4  mynoise.o(.data)
    NoiseNewSensor1Value                     0x200006b8   Data           4  mynoise.o(.data)
    NoiseNewSensor2Value                     0x200006bc   Data           4  mynoise.o(.data)
    NoiseNewSensor1Db                        0x200006c0   Data           4  mynoise.o(.data)
    NoiseNewSensor2Db                        0x200006c4   Data           4  mynoise.o(.data)
    NoiseNewSensorDb                         0x200006c8   Data           4  mynoise.o(.data)
    NoiseNewOtherDb                          0x200006cc   Data           4  mynoise.o(.data)
    NoiseFaultFun                            0x200006d0   Data           1  mynoise.o(.data)
    NoiseNoAudioInCnt                        0x200006d1   Data           1  mynoise.o(.data)
    I2C_SGTL5000_Error                       0x200006dc   Data           4  soundcard.o(.data)
    I2C_SGTL5000_Timeout                     0x200006e0   Data           4  soundcard.o(.data)
    g_SGTL5000_valid                         0x200006e4   Data           1  soundcard.o(.data)
    SystemCoreClock                          0x200006f8   Data           4  system_stm32f2xx.o(.data)
    AHBPrescTable                            0x200006fc   Data          16  system_stm32f2xx.o(.data)
    DMATxDescToSet                           0x2000070c   Data           4  stm32f2x7_eth.o(.data)
    DMARxDescToGet                           0x20000710   Data           4  stm32f2x7_eth.o(.data)
    DMA_RX_FRAME_infos                       0x20000714   Data           4  stm32f2x7_eth.o(.data)
    Frame_Rx_index                           0x20000718   Data           4  stm32f2x7_eth.o(.data)
    netif_list                               0x2000072c   Data           4  netif.o(.data)
    netif_default                            0x20000730   Data           4  netif.o(.data)
    tcp_state_str                            0x2000073c   Data          44  tcp.o(.data)
    tcp_ticks                                0x20000768   Data           4  tcp.o(.data)
    tcp_bound_pcbs                           0x2000076c   Data           4  tcp.o(.data)
    tcp_listen_pcbs                          0x20000770   Data           4  tcp.o(.data)
    tcp_active_pcbs                          0x20000774   Data           4  tcp.o(.data)
    tcp_tw_pcbs                              0x20000778   Data           4  tcp.o(.data)
    tcp_tmp_pcb                              0x2000077c   Data           4  tcp.o(.data)
    tcp_input_pcb                            0x200007a4   Data           4  tcp_in.o(.data)
    udp_pcbs                                 0x200007a8   Data           4  udp.o(.data)
    current_netif                            0x200007ac   Data           4  ip.o(.data)
    current_header                           0x200007b0   Data           4  ip.o(.data)
    LedBrightness                            0x200007c4   Data          20  myapp.o(.bss)
    NetBuf                                   0x200007d8   Data        1280  mynet.o(.bss)
    Netif                                    0x20000cd8   Data          52  mylwip.o(.bss)
    DmaPlayMem0                              0x20000d0c   Data        2048  myi2s.o(.bss)
    DmaPlayMem1                              0x2000150c   Data        2048  myi2s.o(.bss)
    DmaListenMem0                            0x20001d0c   Data        2048  myi2s.o(.bss)
    DmaListenMem1                            0x2000250c   Data        2048  myi2s.o(.bss)
    PlayLeftFifo                             0x20002d0c   Data        8192  myaudio.o(.bss)
    PlayRightFifo                            0x20004d0c   Data        8192  myaudio.o(.bss)
    ListenLeftFifo                           0x20006d0c   Data        2048  myaudio.o(.bss)
    ListenRightFifo                          0x2000750c   Data        2048  myaudio.o(.bss)
    AudioPlayInfo                            0x20007d0c   Data          12  myaudio.o(.bss)
    SampleVbuf                               0x20007d18   Data          32  myaudio.o(.bss)
    SampleIbuf                               0x20007d38   Data          32  myaudio.o(.bss)
    AudioPlayTestSinBuf                      0x20007d58   Data        1024  myaudio.o(.bss)
    HttpTest                                 0x20008198   Data        1024  myhttpd.o(.bss)
    PageBuf                                  0x20008598   Data        1024  myhttpd.o(.bss)
    StorageInfo                              0x20008998   Data          23  mystorage.o(.bss)
    OutStr                                   0x200089af   Data         512  mycommander.o(.bss)
    AdcConvertedValue                        0x20008bb0   Data         512  myadc.o(.bss)
    SelfTestFrequencyResponse                0x20008db0   Data         128  myselftest.o(.bss)
    DaBuf                                    0x20008e30   Data         516  mytftpclient.o(.bss)
    Noise1Buf                                0x20009034   Data         400  mynoise.o(.bss)
    Noise2Buf                                0x200091c4   Data         400  mynoise.o(.bss)
    NoiseNewSensor1Buf                       0x20009354   Data         400  mynoise.o(.bss)
    NoiseNewSensor2Buf                       0x200094e4   Data         400  mynoise.o(.bss)
    DMARxDscrTab                             0x20009674   Data         160  stm32f2x7_eth.o(.bss)
    DMATxDscrTab                             0x20009714   Data         160  stm32f2x7_eth.o(.bss)
    Rx_Buff                                  0x200097b4   Data        7620  stm32f2x7_eth.o(.bss)
    Tx_Buff                                  0x2000b578   Data        7620  stm32f2x7_eth.o(.bss)
    RX_Frame_Descriptor                      0x2000d33c   Data          12  stm32f2x7_eth.o(.bss)
    __initial_sp                             0x20017a70   Data           0  startup_stm32f2xx.o(STACK)



==============================================================================

Memory Map of the image

  Image Entry point : 0x08000185

  Load Region LR_IROM1 (Base: 0x08000000, Size: 0x00014c80, Max: 0x00040000, ABSOLUTE, COMPRESSED[0x00014874])

    Execution Region ER_IROM1 (Exec base: 0x08000000, Load base: 0x08000000, Size: 0x000144bc, Max: 0x00040000, ABSOLUTE)

    Exec Addr    Load Addr    Size         Type   Attr      Idx    E Section Name        Object

    0x08000000   0x08000000   0x00000184   Data   RO         1017    RESET               startup_stm32f2xx.o
    0x08000184   0x08000184   0x00000000   Code   RO         1654  * .ARM.Collect$$$$00000000  mc_w.l(entry.o)
    0x08000184   0x08000184   0x00000004   Code   RO         1964    .ARM.Collect$$$$00000001  mc_w.l(entry2.o)
    0x08000188   0x08000188   0x00000004   Code   RO         1967    .ARM.Collect$$$$00000004  mc_w.l(entry5.o)
    0x0800018c   0x0800018c   0x00000000   Code   RO         1969    .ARM.Collect$$$$00000008  mc_w.l(entry7b.o)
    0x0800018c   0x0800018c   0x00000000   Code   RO         1971    .ARM.Collect$$$$0000000A  mc_w.l(entry8b.o)
    0x0800018c   0x0800018c   0x00000008   Code   RO         1972    .ARM.Collect$$$$0000000B  mc_w.l(entry9a.o)
    0x08000194   0x08000194   0x00000000   Code   RO         1974    .ARM.Collect$$$$0000000D  mc_w.l(entry10a.o)
    0x08000194   0x08000194   0x00000000   Code   RO         1976    .ARM.Collect$$$$0000000F  mc_w.l(entry11a.o)
    0x08000194   0x08000194   0x00000004   Code   RO         1965    .ARM.Collect$$$$00002712  mc_w.l(entry2.o)
    0x08000198   0x08000198   0x000001b8   Code   RO            1    .text               main.o
    0x08000350   0x08000350   0x000007f8   Code   RO          293    .text               myapp.o
    0x08000b48   0x08000b48   0x000008a6   Code   RO          358    .text               myboard.o
    0x080013ee   0x080013ee   0x00000002   PAD
    0x080013f0   0x080013f0   0x00000300   Code   RO          373    .text               mymiscfunc.o
    0x080016f0   0x080016f0   0x00000c54   Code   RO          385    .text               mynet.o
    0x08002344   0x08002344   0x00000168   Code   RO          460    .text               myethernet.o
    0x080024ac   0x080024ac   0x0000002c   Code   RO          475    .text               stm32f2xx_it.o
    0x080024d8   0x080024d8   0x000001a0   Code   RO          490    .text               mytimer.o
    0x08002678   0x08002678   0x00000668   Code   RO          512    .text               mylwip.o
    0x08002ce0   0x08002ce0   0x00000ad4   Code   RO          528    .text               myi2c.o
    0x080037b4   0x080037b4   0x00000738   Code   RO          558    .text               myi2s.o
    0x08003eec   0x08003eec   0x00000d60   Code   RO          589    .text               myaudio.o
    0x08004c4c   0x08004c4c   0x000006a8   Code   RO          616    .text               myprotocol.o
    0x080052f4   0x080052f4   0x000006b0   Code   RO          631    .text               myhttpd.o
    0x080059a4   0x080059a4   0x00000118   Code   RO          648    .text               myflash.o
    0x08005abc   0x08005abc   0x00000114   Code   RO          663    .text               mystorage.o
    0x08005bd0   0x08005bd0   0x00000b9c   Code   RO          682    .text               mycommander.o
    0x0800676c   0x0800676c   0x000001f0   Code   RO          699    .text               myadc.o
    0x0800695c   0x0800695c   0x000001ac   Code   RO          714    .text               mykey.o
    0x08006b08   0x08006b08   0x0000041c   Code   RO          732    .text               myselftest.o
    0x08006f24   0x08006f24   0x0000031c   Code   RO          751    .text               mytftpclient.o
    0x08007240   0x08007240   0x0000047c   Code   RO          782    .text               mynoise.o
    0x080076bc   0x080076bc   0x000007d0   Code   RO          802    .text               soundcard.o
    0x08007e8c   0x08007e8c   0x000000e0   Code   RO          821    .text               misc.o
    0x08007f6c   0x08007f6c   0x000003a8   Code   RO          845    .text               stm32f2xx_dma.o
    0x08008314   0x08008314   0x000004bc   Code   RO          869    .text               stm32f2xx_flash.o
    0x080087d0   0x080087d0   0x0000025c   Code   RO          881    .text               stm32f2xx_gpio.o
    0x08008a2c   0x08008a2c   0x00000428   Code   RO          893    .text               stm32f2xx_i2c.o
    0x08008e54   0x08008e54   0x00000588   Code   RO          917    .text               stm32f2xx_rcc.o
    0x080093dc   0x080093dc   0x00000364   Code   RO          931    .text               stm32f2xx_spi.o
    0x08009740   0x08009740   0x0000008c   Code   RO          943    .text               stm32f2xx_syscfg.o
    0x080097cc   0x080097cc   0x00000464   Code   RO          979    .text               stm32f2xx_adc.o
    0x08009c30   0x08009c30   0x00000090   Code   RO          991    .text               stm32f2xx_wwdg.o
    0x08009cc0   0x08009cc0   0x00000024   Code   RO         1018    .text               startup_stm32f2xx.o
    0x08009ce4   0x08009ce4   0x000001e0   Code   RO         1023    .text               system_stm32f2xx.o
    0x08009ec4   0x08009ec4   0x00000d84   Code   RO         1073    .text               stm32f2x7_eth.o
    0x0800ac48   0x0800ac48   0x0000034c   Code   RO         1196    .text               mem.o
    0x0800af94   0x0800af94   0x000000a8   Code   RO         1211    .text               memp.o
    0x0800b03c   0x0800b03c   0x00000204   Code   RO         1241    .text               netif.o
    0x0800b240   0x0800b240   0x0000059c   Code   RO         1263    .text               pbuf.o
    0x0800b7dc   0x0800b7dc   0x000001a0   Code   RO         1278    .text               raw.o
    0x0800b97c   0x0800b97c   0x00000bd0   Code   RO         1304    .text               tcp.o
    0x0800c54c   0x0800c54c   0x00001294   Code   RO         1325    .text               tcp_in.o
    0x0800d7e0   0x0800d7e0   0x00000a8e   Code   RO         1348    .text               tcp_out.o
    0x0800e26e   0x0800e26e   0x00000002   PAD
    0x0800e270   0x0800e270   0x000003e0   Code   RO         1360    .text               udp.o
    0x0800e650   0x0800e650   0x000003c0   Code   RO         1378    .text               autoip.o
    0x0800ea10   0x0800ea10   0x00000200   Code   RO         1393    .text               icmp.o
    0x0800ec10   0x0800ec10   0x0000021c   Code   RO         1411    .text               inet.o
    0x0800ee2c   0x0800ee2c   0x00000156   Code   RO         1424    .text               inet_chksum.o
    0x0800ef82   0x0800ef82   0x00000002   PAD
    0x0800ef84   0x0800ef84   0x00000314   Code   RO         1443    .text               ip.o
    0x0800f298   0x0800f298   0x0000004e   Code   RO         1464    .text               ip_addr.o
    0x0800f2e6   0x0800f2e6   0x00000002   PAD
    0x0800f2e8   0x0800f2e8   0x000005ec   Code   RO         1486    .text               ip_frag.o
    0x0800f8d4   0x0800f8d4   0x00000960   Code   RO         1501    .text               etharp.o
    0x08010234   0x08010234   0x000001d4   Code   RO         1536    .text               ethernetif.o
    0x08010408   0x08010408   0x00000024   Code   RO         1657    .text               mc_w.l(memcpya.o)
    0x0801042c   0x0801042c   0x00000024   Code   RO         1659    .text               mc_w.l(memseta.o)
    0x08010450   0x08010450   0x0000000e   Code   RO         1661    .text               mc_w.l(strlen.o)
    0x0801045e   0x0801045e   0x0000001c   Code   RO         1663    .text               mc_w.l(strcmp.o)
    0x0801047a   0x0801047a   0x0000001a   Code   RO         1665    .text               mc_w.l(memcmp.o)
    0x08010494   0x08010494   0x0000001e   Code   RO         1667    .text               mc_w.l(strncmp.o)
    0x080104b2   0x080104b2   0x000000e4   Code   RO         1932    .text               mf_w.l(dmul.o)
    0x08010596   0x08010596   0x000000de   Code   RO         1934    .text               mf_w.l(ddiv.o)
    0x08010674   0x08010674   0x00000022   Code   RO         1936    .text               mf_w.l(dflti.o)
    0x08010696   0x08010696   0x0000003e   Code   RO         1938    .text               mf_w.l(dfixi.o)
    0x080106d4   0x080106d4   0x0000002c   Code   RO         1981    .text               mc_w.l(uidiv.o)
    0x08010700   0x08010700   0x00000020   Code   RO         1985    .text               mc_w.l(llushr.o)
    0x08010720   0x08010720   0x00000000   Code   RO         1994    .text               mc_w.l(iusefp.o)
    0x08010720   0x08010720   0x000000ba   Code   RO         1995    .text               mf_w.l(depilogue.o)
    0x080107da   0x080107da   0x0000014e   Code   RO         1997    .text               mf_w.l(dadd.o)
    0x08010928   0x08010928   0x0000002e   Code   RO         1999    .text               mf_w.l(dscalb.o)
    0x08010956   0x08010956   0x00000002   PAD
    0x08010958   0x08010958   0x00000024   Code   RO         2008    .text               mc_w.l(init.o)
    0x0801097c   0x0801097c   0x0000001e   Code   RO         2011    .text               mc_w.l(llshl.o)
    0x0801099a   0x0801099a   0x00000024   Code   RO         2013    .text               mc_w.l(llsshr.o)
    0x080109be   0x080109be   0x00000002   PAD
    0x080109c0   0x080109c0   0x00000030   Code   RO         2016    .text               mf_w.l(cdcmple.o)
    0x080109f0   0x080109f0   0x00000056   Code   RO         2026    .text               mc_w.l(__dczerorl2.o)
    0x08010a46   0x08010a46   0x0000000a   Ven    RO         2028    Veneer$$Code        anon$$obj.o
    0x08010a50   0x08010a50   0x0000000a   Ven    RO         2029    Veneer$$Code        anon$$obj.o
    0x08010a5a   0x08010a5a   0x00000002   PAD
    0x08010a5c   0x08010a5c   0x00000028   Code   RO         1762    i.__0sprintf$3      mc_w.l(printf3.o)
    0x08010a84   0x08010a84   0x000000aa   Code   RO         2005    i.__kernel_poly     m_ws.l(poly.o)
    0x08010b2e   0x08010b2e   0x00000002   PAD
    0x08010b30   0x08010b30   0x00000010   Code   RO         1940    i.__mathlib_dbl_divzero  m_ws.l(dunder.o)
    0x08010b40   0x08010b40   0x00000006   Code   RO         1941    i.__mathlib_dbl_infnan  m_ws.l(dunder.o)
    0x08010b46   0x08010b46   0x0000000c   Code   RO         1943    i.__mathlib_dbl_invalid  m_ws.l(dunder.o)
    0x08010b52   0x08010b52   0x0000000e   Code   RO         2020    i.__scatterload_copy  mc_w.l(handlers.o)
    0x08010b60   0x08010b60   0x00000002   Code   RO         2021    i.__scatterload_null  mc_w.l(handlers.o)
    0x08010b62   0x08010b62   0x0000000e   Code   RO         2022    i.__scatterload_zeroinit  mc_w.l(handlers.o)
    0x08010b70   0x08010b70   0x0000000c   Code   RO         1989    i.__set_errno       mc_w.l(errno.o)
    0x08010b7c   0x08010b7c   0x000001b8   Code   RO         1767    i._printf_core      mc_w.l(printf3.o)
    0x08010d34   0x08010d34   0x0000000a   Code   RO         1769    i._sputc            mc_w.l(printf3.o)
    0x08010d3e   0x08010d3e   0x00000002   PAD
    0x08010d40   0x08010d40   0x0000035c   Code   RO         1955    i.log               m_ws.l(log.o)
    0x0801109c   0x0801109c   0x000000e4   Code   RO         1647    i.log10             m_ws.l(log10.o)
    0x08011180   0x08011180   0x000025e6   Data   RO          577    .constdata          myaudiosample.o
    0x08013766   0x08013766   0x00000bb6   Data   RO          633    .constdata          myhttpd.o
    0x0801431c   0x0801431c   0x00000024   Data   RO         1213    .constdata          memp.o
    0x08014340   0x08014340   0x00000014   Data   RO         1305    .constdata          tcp.o
    0x08014354   0x08014354   0x00000008   Data   RO         1465    .constdata          ip_addr.o
    0x0801435c   0x0801435c   0x0000000c   Data   RO         1503    .constdata          etharp.o
    0x08014368   0x08014368   0x00000038   Data   RO         1956    .constdata          m_ws.l(log.o)
    0x080143a0   0x080143a0   0x00000008   Data   RO         2007    .constdata          m_ws.l(qnan.o)
    0x080143a8   0x080143a8   0x00000069   Data   RO          684    .conststring        mycommander.o
    0x08014411   0x08014411   0x00000003   PAD
    0x08014414   0x08014414   0x00000075   Data   RO         1306    .conststring        tcp.o
    0x08014489   0x08014489   0x00000003   PAD
    0x0801448c   0x0801448c   0x00000030   Data   RO         2018    Region$$Table       anon$$obj.o


    Execution Region RW_IRAM1 (Exec base: 0x20000000, Load base: 0x080144bc, Size: 0x00017a70, Max: 0x00020000, ABSOLUTE, COMPRESSED[0x00000124])

    Exec Addr    Load Addr    Size         Type   Attr      Idx    E Section Name        Object

    0x20000000   0x080144bc   0x00000294   Code   RO          767    .text               myramfunc.o
    0x20000294   COMPRESSED   0x00000004   Data   RW            2    .data               main.o
    0x20000298   COMPRESSED   0x00000040   Data   RW          295    .data               myapp.o
    0x200002d8   COMPRESSED   0x00000050   Data   RW          387    .data               mynet.o
    0x20000328   COMPRESSED   0x00000005   Data   RW          461    .data               myethernet.o
    0x2000032d   COMPRESSED   0x00000003   PAD
    0x20000330   COMPRESSED   0x00000020   Data   RW          491    .data               mytimer.o
    0x20000350   COMPRESSED   0x0000003c   Data   RW          514    .data               mylwip.o
    0x2000038c   COMPRESSED   0x00000008   Data   RW          529    .data               myi2c.o
    0x20000394   COMPRESSED   0x00000004   Data   RW          560    .data               myi2s.o
    0x20000398   COMPRESSED   0x000000fc   Data   RW          591    .data               myaudio.o
    0x20000494   COMPRESSED   0x00000010   Data   RW          617    .data               myprotocol.o
    0x200004a4   COMPRESSED   0x00000004   Data   RW          649    .data               myflash.o
    0x200004a8   COMPRESSED   0x00000004   Data   RW          665    .data               mystorage.o
    0x200004ac   COMPRESSED   0x0000000c   Data   RW          685    .data               mycommander.o
    0x200004b8   COMPRESSED   0x0000001c   Data   RW          715    .data               mykey.o
    0x200004d4   COMPRESSED   0x00000024   Data   RW          734    .data               myselftest.o
    0x200004f8   COMPRESSED   0x0000001c   Data   RW          753    .data               mytftpclient.o
    0x20000514   COMPRESSED   0x00000008   Data   RW          768    .data               myramfunc.o
    0x2000051c   COMPRESSED   0x000001c0   Data   RW          784    .data               mynoise.o
    0x200006dc   COMPRESSED   0x00000009   Data   RW          803    .data               soundcard.o
    0x200006e5   COMPRESSED   0x00000010   Data   RW          918    .data               stm32f2xx_rcc.o
    0x200006f5   COMPRESSED   0x00000003   PAD
    0x200006f8   COMPRESSED   0x00000014   Data   RW         1024    .data               system_stm32f2xx.o
    0x2000070c   COMPRESSED   0x00000010   Data   RW         1075    .data               stm32f2x7_eth.o
    0x2000071c   COMPRESSED   0x0000000d   Data   RW         1198    .data               mem.o
    0x20000729   COMPRESSED   0x00000003   PAD
    0x2000072c   COMPRESSED   0x00000009   Data   RW         1242    .data               netif.o
    0x20000735   COMPRESSED   0x00000003   PAD
    0x20000738   COMPRESSED   0x00000004   Data   RW         1279    .data               raw.o
    0x2000073c   COMPRESSED   0x0000004c   Data   RW         1307    .data               tcp.o
    0x20000788   COMPRESSED   0x00000020   Data   RW         1327    .data               tcp_in.o
    0x200007a8   COMPRESSED   0x00000004   Data   RW         1361    .data               udp.o
    0x200007ac   COMPRESSED   0x0000000a   Data   RW         1444    .data               ip.o
    0x200007b6   COMPRESSED   0x00000002   PAD
    0x200007b8   COMPRESSED   0x00000006   Data   RW         1488    .data               ip_frag.o
    0x200007be   COMPRESSED   0x00000001   Data   RW         1504    .data               etharp.o
    0x200007bf   COMPRESSED   0x00000001   PAD
    0x200007c0   COMPRESSED   0x00000004   Data   RW         1990    .data               mc_w.l(errno.o)
    0x200007c4        -       0x00000014   Zero   RW          294    .bss                myapp.o
    0x200007d8        -       0x00000500   Zero   RW          386    .bss                mynet.o
    0x20000cd8        -       0x00000034   Zero   RW          513    .bss                mylwip.o
    0x20000d0c        -       0x00002000   Zero   RW          559    .bss                myi2s.o
    0x20002d0c        -       0x0000548c   Zero   RW          590    .bss                myaudio.o
    0x20008198        -       0x00000800   Zero   RW          632    .bss                myhttpd.o
    0x20008998        -       0x00000017   Zero   RW          664    .bss                mystorage.o
    0x200089af        -       0x00000200   Zero   RW          683    .bss                mycommander.o
    0x20008baf   COMPRESSED   0x00000001   PAD
    0x20008bb0        -       0x00000200   Zero   RW          700    .bss                myadc.o
    0x20008db0        -       0x00000080   Zero   RW          733    .bss                myselftest.o
    0x20008e30        -       0x00000204   Zero   RW          752    .bss                mytftpclient.o
    0x20009034        -       0x00000640   Zero   RW          783    .bss                mynoise.o
    0x20009674        -       0x00003cd4   Zero   RW         1074    .bss                stm32f2x7_eth.o
    0x2000d348        -       0x00002814   Zero   RW         1197    .bss                mem.o
    0x2000fb5c        -       0x00006847   Zero   RW         1212    .bss                memp.o
    0x200163a3   COMPRESSED   0x00000001   PAD
    0x200163a4        -       0x00000014   Zero   RW         1326    .bss                tcp_in.o
    0x200163b8        -       0x00000010   Zero   RW         1412    .bss                inet.o
    0x200163c8        -       0x000005e0   Zero   RW         1487    .bss                ip_frag.o
    0x200169a8        -       0x000000c8   Zero   RW         1502    .bss                etharp.o
    0x20016a70        -       0x00001000   Zero   RW         1015    STACK               startup_stm32f2xx.o


==============================================================================

Image component sizes


      Code (inc. data)   RO Data    RW Data    ZI Data      Debug   Object Name

       960         34          0          0          0       4410   autoip.o
      2400         22         12          1        200       9822   etharp.o
       468         42          0          0          0       2880   ethernetif.o
       512          0          0          0          0       2586   icmp.o
       540         12          0          0         16       3208   inet.o
       342          0          0          0          0       5270   inet_chksum.o
         0          0          0          0          0       5122   init.o
       788         22          0         10          0       5906   ip.o
        78          0          8          0          0       5453   ip_addr.o
      1516         18          0          6       1504       5936   ip_frag.o
       440         48          0          4          0     318749   main.o
       844         22          0         13      10260       3730   mem.o
       168         18         36          0      26695       2922   memp.o
       224         20          0          0          0       1757   misc.o
       496         22          0          0        512       2682   myadc.o
      2040        120          0         64         20       5739   myapp.o
      3424        496          0        252      21644      12545   myaudio.o
         0          0       9702          0          0       1053   myaudiosample.o
      2214         54          0          0          0       6379   myboard.o
      2972       1008        105         12        512       6540   mycommander.o
       360         18          0          5          0       1405   myethernet.o
       280          8          0          4          0       2684   myflash.o
      1712        298       2998          0       2048       9134   myhttpd.o
      2772         82          0          8          0       5500   myi2c.o
      1848        120          0          4       8192       6101   myi2s.o
       428         32          0         28          0       1408   mykey.o
      1640        122          0         60         52       8854   mylwip.o
       768          4          0          0          0       4488   mymiscfunc.o
      3156        240          0         80       1280      33717   mynet.o
      1148        270          0        448       1600       4227   mynoise.o
      1704        112          0         16          0       8848   myprotocol.o
       660         38          0          8          0       1698   myramfunc.o
      1052         52          0         36        128       4160   myselftest.o
       276         36          0          4         23       1775   mystorage.o
       796         48          0         28        516       4370   mytftpclient.o
       416         56          0         32          0      19346   mytimer.o
       516         20          0          9          0       5420   netif.o
      1436          0          0          0          0       5860   pbuf.o
       416          4          0          4          0       3481   raw.o
      2000         56          0          9          0       5584   soundcard.o
        36          8        388          0       4096        832   startup_stm32f2xx.o
      3460         92          0         16      15572      55636   stm32f2x7_eth.o
      1124         24          0          0          0      10434   stm32f2xx_adc.o
       936         32          0          0          0       6285   stm32f2xx_dma.o
      1212         26          0          0          0       6881   stm32f2xx_flash.o
       604         36          0          0          0       3917   stm32f2xx_gpio.o
      1064         26          0          0          0       8039   stm32f2xx_i2c.o
        44          0          0          0          0       1387   stm32f2xx_it.o
      1416         48          0         16          0      10907   stm32f2xx_rcc.o
       868         22          0          0          0       6248   stm32f2xx_spi.o
       140         12          0          0          0       1503   stm32f2xx_syscfg.o
       144         10          0          0          0       2192   stm32f2xx_wwdg.o
       480         40          0         20          0       1751   system_stm32f2xx.o
      3024        116        137         76          0      18132   tcp.o
      4756        214          0         32         20      13268   tcp_in.o
      2702         12          0          0          0       7162   tcp_out.o
       992          8          0          4          0       6357   udp.o

    ----------------------------------------------------------------------
     66842       4300      13440       1324      94892     711680   Object Totals
        20          0         48          0          0          0   (incl. Generated)
        10          0          6         15          2          0   (incl. Padding)

    ----------------------------------------------------------------------

      Code (inc. data)   RO Data    RW Data    ZI Data      Debug   Library Member Name

        34          4          0          0          0        204   dunder.o
       860         52         56          0          0        256   log.o
       228         30          0          0          0        120   log10.o
       170          0          0          0          0         96   poly.o
         0          0          8          0          0          0   qnan.o
        86          0          0          0          0          0   __dczerorl2.o
         0          0          0          0          0          0   entry.o
         0          0          0          0          0          0   entry10a.o
         0          0          0          0          0          0   entry11a.o
         8          4          0          0          0          0   entry2.o
         4          0          0          0          0          0   entry5.o
         0          0          0          0          0          0   entry7b.o
         0          0          0          0          0          0   entry8b.o
         8          4          0          0          0          0   entry9a.o
        12          6          0          4          0         68   errno.o
        30          0          0          0          0          0   handlers.o
        36          8          0          0          0         68   init.o
         0          0          0          0          0          0   iusefp.o
        30          0          0          0          0         68   llshl.o
        36          0          0          0          0         68   llsshr.o
        32          0          0          0          0         68   llushr.o
        26          0          0          0          0         80   memcmp.o
        36          0          0          0          0         68   memcpya.o
        36          0          0          0          0        108   memseta.o
       490         10          0          0          0        252   printf3.o
        28          0          0          0          0         76   strcmp.o
        14          0          0          0          0         68   strlen.o
        30          0          0          0          0         80   strncmp.o
        44          0          0          0          0         80   uidiv.o
        48          0          0          0          0         68   cdcmple.o
       334          0          0          0          0        148   dadd.o
       222          0          0          0          0        100   ddiv.o
       186          0          0          0          0        176   depilogue.o
        62          0          0          0          0         80   dfixi.o
        34          0          0          0          0         76   dflti.o
       228          0          0          0          0         96   dmul.o
        46          0          0          0          0         80   dscalb.o

    ----------------------------------------------------------------------
      3446        118         64          4          0       2652   Library Totals
         8          0          0          0          0          0   (incl. Padding)

    ----------------------------------------------------------------------

      Code (inc. data)   RO Data    RW Data    ZI Data      Debug   Library Name

      1292         86         64          0          0        676   m_ws.l
       986         32          0          4          0       1152   mc_w.l
      1160          0          0          0          0        824   mf_w.l

    ----------------------------------------------------------------------
      3446        118         64          4          0       2652   Library Totals

    ----------------------------------------------------------------------

==============================================================================


      Code (inc. data)   RO Data    RW Data    ZI Data      Debug   

     70288       4418      13504       1328      94892     707076   Grand Totals
     70288       4418      13504        292      94892     707076   ELF Image Totals (compressed)
     70288       4418      13504        292          0          0   ROM Totals

==============================================================================

    Total RO  Size (Code + RO Data)                83792 (  81.83kB)
    Total RW  Size (RW Data + ZI Data)             96220 (  93.96kB)
    Total ROM Size (Code + RO Data + RW Data)      84084 (  82.11kB)

==============================================================================

