ARM Linker, 4.1 [Build 791] [Professional]

==============================================================================

Section Cross References

    main.o(.text) refers to flash_if.o(.text) for App_SetVectorTable
    main.o(.text) refers to mymiscfunc.o(.text) for Delay
    main.o(.text) refers to myboard.o(.text) for RCC_Configuration
    main.o(.text) refers to mytimer.o(.text) for SysTick_Init
    main.o(.text) refers to p_sys.o(.text) for feed_dog
    main.o(.text) refers to myapp.o(.text) for AppInit
    main.o(.text) refers to mystorage.o(.text) for StorageInit
    main.o(.text) refers to mynet.o(.text) for NetInit
    main.o(.text) refers to process_ledscreen.o(.text) for ledscreen_init
    main.o(.text) refers to mylwip.o(.text) for LwipProcess
    main.o(.text) refers to process_net.o(.text) for udp_CtrlMsg_send_process
    main.o(.text) refers to mycommander.o(.text) for send_AppInfo
    main.o(.text) refers to myhttpd.o(.text) for check_iap_req_process
    main.o(.text) refers to main.o(.data) for timer_3
    main.o(.text) refers to mytimer.o(.data) for MyTmCnt10
    p_sys.o(.text) refers to stm32f2xx_gpio.o(.text) for GPIO_Init
    p_sys.o(.text) refers to p_sys.o(.data) for tmp
    p_sys.o(.text) refers to process_ledscreen.o(.data) for roll_speed
    p_sys.o(.text) refers to main.o(.data) for timer2_flag
    hc595.o(.text) refers to stm32f2xx_gpio.o(.text) for GPIO_SetBits
    hc595.o(.text) refers to process_ledscreen.o(.text) for clr_led_buf
    hc595.o(.text) refers to mymiscfunc.o(.text) for Delay
    hc595.o(.text) refers to hc595.o(.constdata) for led_row_select
    hc595.o(.text) refers to hc595.o(.data) for line_No
    hc595.o(.text) refers to hc595.o(.bss) for green_CN
    hc595.o(.text) refers to process_ledscreen.o(.data) for brightness
    hc595.o(.text) refers to main.o(.data) for refresh_flag
    myapp.o(.text) refers to bsp_dev_id.o(.text) for get_devecie_id
    myapp.o(.text) refers to mystorage.o(.text) for StorageInfoSave
    myapp.o(.text) refers to mycommander.o(.text) for CommanderSendDeviceId
    myapp.o(.text) refers to myapp.o(.data) for AppStartTimer
    myaudio.o(.text) refers to myi2s.o(.text) for L3Uda1341SetVolume
    myaudio.o(.text) refers to mystorage.o(.text) for StorageInfoSave
    myaudio.o(.text) refers to mymiscfunc.o(.text) for Delay
    myaudio.o(.text) refers to myaudio.o(.data) for AudioVolume
    myaudio.o(.text) refers to myaudio.o(.bss) for ListenLeftFifo
    myaudio.o(.text) refers to myi2s.o(.data) for DmaPlayFlag
    myboard.o(.text) refers to stm32f2xx_rcc.o(.text) for RCC_AHB1PeriphClockCmd
    myboard.o(.text) refers to stm32f2xx_gpio.o(.text) for GPIO_Init
    myboard.o(.text) refers to p_sys.o(.text) for watchdog_GPIO_config
    myboard.o(.text) refers to bsp_dev_id.o(.text) for Device_id_GPIO_config
    myboard.o(.text) refers to hc595.o(.text) for HC595_GPIO_config
    mycommander.o(.text) refers to _printf_percent.o(.ARM.Collect$$_printf_percent$$00000000) for _printf_percent
    mycommander.o(.text) refers to _printf_d.o(.ARM.Collect$$_printf_percent$$00000009) for _printf_d
    mycommander.o(.text) refers to _printf_dec.o(.text) for _printf_int_dec
    mycommander.o(.text) refers to _printf_pad.o(.text) for _printf_pre_padding
    mycommander.o(.text) refers to _printf_x.o(.ARM.Collect$$_printf_percent$$0000000C) for _printf_x
    mycommander.o(.text) refers to _printf_hex_int.o(.text) for _printf_longlong_hex
    mycommander.o(.text) refers to strlen.o(.text) for strlen
    mycommander.o(.text) refers to mylwip.o(.text) for UdpCommanderSend
    mycommander.o(.text) refers to rt_memclr.o(.text) for __aeabi_memclr
    mycommander.o(.text) refers to noretval__2sprintf.o(.text) for __2sprintf
    mycommander.o(.text) refers to rt_memcpy_w.o(.text) for __aeabi_memcpy4
    mycommander.o(.text) refers to rt_memclr_w.o(.text) for __aeabi_memclr4
    mycommander.o(.text) refers to strcat.o(.text) for strcat
    mycommander.o(.text) refers to mymiscfunc.o(.text) for LineToWords
    mycommander.o(.text) refers to strcmpv7m.o(.text) for strcmp
    mycommander.o(.text) refers to mynet.o(.text) for NetSetLocalIp4
    mycommander.o(.text) refers to myapp.o(.text) for SetDeviceId
    mycommander.o(.text) refers to myaudio.o(.text) for AudioSetVolume
    mycommander.o(.text) refers to mycommander.o(.bss) for OutStr
    mycommander.o(.text) refers to myapp.o(.data) for TrainId
    mycommander.o(.text) refers to mynet.o(.data) for NetLocalIp
    mycommander.o(.text) refers to mycommander.o(.constdata) for .constdata
    mycommander.o(.text) refers to process_ledscreen.o(.constdata) for software_version
    myethernet.o(.text) refers to stm32f2xx_rcc.o(.text) for RCC_AHB1PeriphClockCmd
    myethernet.o(.text) refers to stm32f2x7_eth.o(.text) for ETH_DeInit
    myethernet.o(.text) refers to stm32f2xx_gpio.o(.text) for GPIO_Init
    myethernet.o(.text) refers to stm32f2xx_syscfg.o(.text) for SYSCFG_ETH_MediaInterfaceConfig
    myethernet.o(.text) refers to myethernet.o(.data) for EthInitStatus
    myflash.o(.text) refers to stm32f2xx_flash.o(.text) for FLASH_Unlock
    myflash.o(.text) refers to myflash.o(.data) for FlashPage1Addr
    myflash.o(.text) refers to mystorage.o(.bss) for StorageInfo
    myhttpd.o(.text) refers to _printf_percent.o(.ARM.Collect$$_printf_percent$$00000000) for _printf_percent
    myhttpd.o(.text) refers to _printf_s.o(.ARM.Collect$$_printf_percent$$00000014) for _printf_s
    myhttpd.o(.text) refers to _printf_str.o(.text) for _printf_str
    myhttpd.o(.text) refers to _printf_d.o(.ARM.Collect$$_printf_percent$$00000009) for _printf_d
    myhttpd.o(.text) refers to _printf_dec.o(.text) for _printf_int_dec
    myhttpd.o(.text) refers to _printf_pad.o(.text) for _printf_pre_padding
    myhttpd.o(.text) refers to _printf_x.o(.ARM.Collect$$_printf_percent$$0000000C) for _printf_x
    myhttpd.o(.text) refers to _printf_hex_int.o(.text) for _printf_longlong_hex
    myhttpd.o(.text) refers to mem.o(.text) for mem_malloc
    myhttpd.o(.text) refers to tcp.o(.text) for tcp_arg
    myhttpd.o(.text) refers to tcp_out.o(.text) for tcp_write
    myhttpd.o(.text) refers to strlen.o(.text) for strlen
    myhttpd.o(.text) refers to memcmp.o(.text) for memcmp
    myhttpd.o(.text) refers to process_ledscreen.o(.text) for clr_led_buf
    myhttpd.o(.text) refers to process_net.o(.text) for clr_dispinfo
    myhttpd.o(.text) refers to rt_memclr_w.o(.text) for __aeabi_memclr4
    myhttpd.o(.text) refers to noretval__2sprintf.o(.text) for __2sprintf
    myhttpd.o(.text) refers to strcat.o(.text) for strcat
    myhttpd.o(.text) refers to pbuf.o(.text) for pbuf_free
    myhttpd.o(.text) refers to rt_memcpy_v6.o(.text) for __aeabi_memcpy
    myhttpd.o(.text) refers to strncmp.o(.text) for strncmp
    myhttpd.o(.text) refers to process_ledscreen.o(.constdata) for software_version
    myhttpd.o(.text) refers to process_ledscreen.o(.data) for ptu_SetMode
    myhttpd.o(.text) refers to myhttpd.o(.data) for mode_description
    myhttpd.o(.text) refers to myapp.o(.data) for DevId
    myhttpd.o(.text) refers to myhttpd.o(.constdata) for .constdata
    myhttpd.o(.text) refers to main.o(.data) for Debuger
    myhttpd.o(.text) refers to myhttpd.o(.bss) for str_tmp
    myhttpd.o(.text) refers to p_sys.o(.text) for get_timer0_clock
    myhttpd.o(.text) refers to flash_if.o(.text) for run_iap_prog
    myhttpd.o(.text) refers to ip_addr.o(.constdata) for ip_addr_any
    myhttpd.o(.data) refers to myhttpd.o(.conststring) for .conststring
    myhttpd.o(.data) refers to myhttpd.o(.conststrlit) for .conststrlit
    myi2c.o(.text) refers to stm32f2xx_i2c.o(.text) for I2C_Cmd
    myi2s.o(.text) refers to stm32f2xx_rcc.o(.text) for RCC_APB1PeriphClockCmd
    myi2s.o(.text) refers to stm32f2xx_spi.o(.text) for SPI_I2S_DeInit
    myi2s.o(.text) refers to stm32f2xx_dma.o(.text) for DMA_Cmd
    myi2s.o(.text) refers to misc.o(.text) for NVIC_Init
    myi2s.o(.text) refers to mymiscfunc.o(.text) for IndexAdd1
    myi2s.o(.text) refers to myi2s.o(.bss) for DmaPlayMem1
    myi2s.o(.text) refers to myaudio.o(.data) for PlayRightConsumeIndex
    myi2s.o(.text) refers to main.o(.data) for Debuger
    myi2s.o(.text) refers to myi2s.o(.data) for DmaPlayFlag
    myi2s.o(.text) refers to myboard.o(.text) for WriteL3Mode
    mylwip.o(.text) refers to udp.o(.text) for udp_new
    mylwip.o(.text) refers to mynet.o(.text) for NetPlayclkReceiveProcess
    mylwip.o(.text) refers to pbuf.o(.text) for pbuf_free
    mylwip.o(.text) refers to mycommander.o(.text) for CommanderReceive
    mylwip.o(.text) refers to process_net.o(.text) for UdpTestReceiveProcess
    mylwip.o(.text) refers to mem.o(.text) for mem_init
    mylwip.o(.text) refers to memp.o(.text) for memp_init
    mylwip.o(.text) refers to inet.o(.text) for htonl
    mylwip.o(.text) refers to netif.o(.text) for netif_add
    mylwip.o(.text) refers to ethernetif.o(.text) for ethernetif_input
    mylwip.o(.text) refers to stm32f2x7_eth.o(.text) for ETH_CheckFrameReceived
    mylwip.o(.text) refers to etharp.o(.text) for etharp_tmr
    mylwip.o(.text) refers to mylwip.o(.data) for pUdpPlayclkSendPcb
    mylwip.o(.text) refers to ip_addr.o(.constdata) for ip_addr_any
    mylwip.o(.text) refers to mynet.o(.data) for NetLocalIp
    mylwip.o(.text) refers to mylwip.o(.bss) for Netif
    mymiscfunc.o(.text) refers to strlen.o(.text) for strlen
    mymiscfunc.o(.text) refers to main.o(.data) for Debuger
    mynet.o(.text) refers to mymiscfunc.o(.text) for Delay
    mynet.o(.text) refers to mystorage.o(.text) for StorageInfoRead
    mynet.o(.text) refers to myethernet.o(.text) for EthernetInit
    mynet.o(.text) refers to mylwip.o(.text) for LwipInit
    mynet.o(.text) refers to myprotocol.o(.text) for ProtocolInit
    mynet.o(.text) refers to myhttpd.o(.text) for HttpdInit
    mynet.o(.text) refers to process_ledscreen.o(.text) for turn_off_screen_clrbuf
    mynet.o(.text) refers to process_net.o(.text) for udp_CtrlMsg_receive_process
    mynet.o(.text) refers to myaudio.o(.text) for AudioSetVolume
    mynet.o(.text) refers to mynet.o(.data) for NetLocalIp
    mynet.o(.text) refers to myapp.o(.data) for DevId
    mynet.o(.text) refers to mynet.o(.bss) for NetBuf
    mynet.o(.text) refers to myaudio.o(.data) for PlayClockSendFlag
    myprotocol.o(.text) refers to mynet.o(.text) for NetIp4toIp32
    myprotocol.o(.text) refers to rt_memcpy_v6.o(.text) for __aeabi_memcpy
    myprotocol.o(.text) refers to myapp.o(.data) for DevType
    myprotocol.o(.text) refers to myprotocol.o(.data) for ProtocolLocalInfo
    myprotocol.o(.text) refers to mynet.o(.data) for NetLocalIp
    mystorage.o(.text) refers to myi2c.o(.text) for AT24C32_Init
    mystorage.o(.text) refers to mymiscfunc.o(.text) for Delay
    mystorage.o(.text) refers to mystorage.o(.data) for StorageInfoSaveFlag
    mystorage.o(.text) refers to mynet.o(.data) for NetLocalIp
    mystorage.o(.text) refers to mystorage.o(.bss) for StorageInfo
    mystorage.o(.text) refers to myaudio.o(.data) for AudioVolume
    mystorage.o(.text) refers to myapp.o(.data) for TrainId
    myswitch.o(.text) refers to myi2c.o(.text) for I2cKsz8863Init
    myswitch.o(.text) refers to mymiscfunc.o(.text) for Delay
    mytimer.o(.text) refers to misc.o(.text) for SysTick_CLKSourceConfig
    mytimer.o(.text) refers to stm32f2xx_rcc.o(.text) for RCC_GetClocksFreq
    mytimer.o(.text) refers to p_sys.o(.text) for timer_isr_hook
    mytimer.o(.text) refers to mynet.o(.text) for Net50ms
    mytimer.o(.text) refers to mylwip.o(.text) for Lwip50ms
    mytimer.o(.text) refers to mystorage.o(.text) for StorageInfoSaveProcess
    mytimer.o(.text) refers to myboard.o(.text) for LED1Flash
    mytimer.o(.text) refers to myapp.o(.text) for App1000ms
    mytimer.o(.text) refers to mytimer.o(.data) for MyTmCnt10
    mytimer.o(.text) refers to myaudio.o(.data) for AudioPlayInfo
    stm32f2xx_it.o(.text) refers to process_ledscreen.o(.text) for turn_off_screen_clrbuf
    stm32f2xx_it.o(.text) refers to mytimer.o(.text) for SysTick_Isr
    stm32f2xx_it.o(.text) refers to myi2s.o(.text) for DmaListen_Isr
    bsp_dev_id.o(.text) refers to stm32f2xx_gpio.o(.text) for GPIO_Init
    bsp_dev_id.o(.text) refers to process_net.o(.text) for report_error
    bsp_dev_id.o(.text) refers to p_sys.o(.text) for feed_dog
    bsp_dev_id.o(.text) refers to myapp.o(.data) for DevId
    startup_stm32f2xx.o(STACK) refers (Special) to heapauxi.o(.text) for __use_two_region_memory
    startup_stm32f2xx.o(HEAP) refers (Special) to heapauxi.o(.text) for __use_two_region_memory
    startup_stm32f2xx.o(RESET) refers (Special) to heapauxi.o(.text) for __use_two_region_memory
    startup_stm32f2xx.o(RESET) refers to startup_stm32f2xx.o(STACK) for __initial_sp
    startup_stm32f2xx.o(RESET) refers to startup_stm32f2xx.o(.text) for Reset_Handler
    startup_stm32f2xx.o(RESET) refers to stm32f2xx_it.o(.text) for NMI_Handler
    startup_stm32f2xx.o(.text) refers (Special) to heapauxi.o(.text) for __use_two_region_memory
    startup_stm32f2xx.o(.text) refers to system_stm32f2xx.o(.text) for SystemInit
    startup_stm32f2xx.o(.text) refers to __main.o(!!!main) for __main
    startup_stm32f2xx.o(.text) refers to startup_stm32f2xx.o(HEAP) for Heap_Mem
    startup_stm32f2xx.o(.text) refers to startup_stm32f2xx.o(STACK) for Stack_Mem
    system_stm32f2xx.o(.text) refers to system_stm32f2xx.o(.data) for SystemCoreClock
    stm32f2x7_eth.o(.text) refers to stm32f2xx_rcc.o(.text) for RCC_AHB1PeriphResetCmd
    stm32f2x7_eth.o(.text) refers to stm32f2x7_eth.o(.data) for DMARxDescToGet
    stm32f2x7_eth.o(.text) refers to stm32f2x7_eth.o(.bss) for RX_Frame_Descriptor
    init.o(.text) refers to mem.o(.text) for mem_init
    init.o(.text) refers to memp.o(.text) for memp_init
    init.o(.text) refers to autoip.o(.text) for autoip_init
    mem.o(.text) refers to rt_memclr.o(.text) for __aeabi_memclr
    mem.o(.text) refers to mem.o(.data) for ram
    mem.o(.text) refers to mem.o(.bss) for ram_heap
    memp.o(.text) refers to memp.o(.bss) for memp_memory
    memp.o(.text) refers to memp.o(.constdata) for memp_sizes
    netif.o(.text) refers to tcp.o(.text) for tcp_abandon
    netif.o(.text) refers to etharp.o(.text) for etharp_request
    netif.o(.text) refers to tcp.o(.data) for tcp_active_pcbs
    netif.o(.text) refers to netif.o(.data) for netifnum
    pbuf.o(.text) refers to memp.o(.text) for memp_free
    pbuf.o(.text) refers to mem.o(.text) for mem_free
    pbuf.o(.text) refers to rt_memcpy_v6.o(.text) for __aeabi_memcpy
    raw.o(.text) refers to inet.o(.text) for ntohs
    raw.o(.text) refers to pbuf.o(.text) for pbuf_header
    raw.o(.text) refers to ip.o(.text) for ip_route
    raw.o(.text) refers to memp.o(.text) for memp_free
    raw.o(.text) refers to rt_memclr_w.o(.text) for __aeabi_memclr4
    raw.o(.text) refers to raw.o(.data) for raw_pcbs
    tcp.o(.text) refers to pbuf.o(.text) for pbuf_free
    tcp.o(.text) refers to memp.o(.text) for memp_free
    tcp.o(.text) refers to tcp_out.o(.text) for tcp_zero_window_probe
    tcp.o(.text) refers to tcp.o(.data) for tcp_ticks
    tcp.o(.text) refers to tcp.o(.constdata) for tcp_persist_backoff
    tcp.o(.text) refers to ip.o(.text) for ip_route
    tcp.o(.text) refers to rt_memclr_w.o(.text) for __aeabi_memclr4
    tcp.o(.data) refers to tcp.o(.conststring) for .conststring
    tcp_in.o(.text) refers to tcp_out.o(.text) for tcp_rexmit_fast
    tcp_in.o(.text) refers to pbuf.o(.text) for pbuf_clen
    tcp_in.o(.text) refers to inet.o(.text) for ntohs
    tcp_in.o(.text) refers to tcp.o(.text) for tcp_seg_free
    tcp_in.o(.text) refers to tcp_in.o(.data) for flags
    tcp_in.o(.text) refers to tcp.o(.data) for tcp_ticks
    tcp_in.o(.text) refers to tcp_in.o(.bss) for inseg
    tcp_in.o(.text) refers to ip_addr.o(.text) for ip_addr_isbroadcast
    tcp_in.o(.text) refers to memp.o(.text) for memp_free
    tcp_out.o(.text) refers to inet.o(.text) for htons
    tcp_out.o(.text) refers to memp.o(.text) for memp_malloc
    tcp_out.o(.text) refers to pbuf.o(.text) for pbuf_alloc
    tcp_out.o(.text) refers to rt_memcpy_v6.o(.text) for __aeabi_memcpy
    tcp_out.o(.text) refers to tcp.o(.text) for tcp_segs_free
    tcp_out.o(.text) refers to ip.o(.text) for ip_output
    tcp_out.o(.text) refers to tcp.o(.data) for tcp_ticks
    tcp_out.o(.text) refers to tcp_in.o(.data) for tcp_input_pcb
    udp.o(.text) refers to inet.o(.text) for ntohs
    udp.o(.text) refers to pbuf.o(.text) for pbuf_header
    udp.o(.text) refers to ip_addr.o(.text) for ip_addr_isbroadcast
    udp.o(.text) refers to icmp.o(.text) for icmp_dest_unreach
    udp.o(.text) refers to ip.o(.text) for ip_output_if
    udp.o(.text) refers to memp.o(.text) for memp_free
    udp.o(.text) refers to rt_memclr_w.o(.text) for __aeabi_memclr4
    udp.o(.text) refers to udp.o(.data) for udp_pcbs
    udp.o(.text) refers to ip_addr.o(.constdata) for ip_addr_any
    autoip.o(.text) refers to inet.o(.text) for htonl
    autoip.o(.text) refers to netif.o(.text) for netif_is_up
    autoip.o(.text) refers to mem.o(.text) for mem_malloc
    autoip.o(.text) refers to etharp.o(.text) for etharp_raw
    autoip.o(.text) refers to memcmp.o(.text) for memcmp
    autoip.o(.text) refers to etharp.o(.constdata) for ethzero
    autoip.o(.text) refers to ip_addr.o(.constdata) for ip_addr_any
    autoip.o(.text) refers to netif.o(.data) for netif_list
    icmp.o(.text) refers to inet.o(.text) for ntohs
    icmp.o(.text) refers to pbuf.o(.text) for pbuf_header
    icmp.o(.text) refers to ip_addr.o(.text) for ip_addr_isbroadcast
    icmp.o(.text) refers to inet_chksum.o(.text) for inet_chksum_pbuf
    icmp.o(.text) refers to ip.o(.text) for ip_output_if
    icmp.o(.text) refers to rt_memcpy_v6.o(.text) for __aeabi_memcpy
    inet.o(.text) refers to inet.o(.bss) for str
    inet_chksum.o(.text) refers to inet.o(.text) for htons
    ip.o(.text) refers to netif.o(.text) for netif_is_up
    ip.o(.text) refers to inet.o(.text) for ntohs
    ip.o(.text) refers to pbuf.o(.text) for pbuf_free
    ip.o(.text) refers to ip_addr.o(.text) for ip_addr_isbroadcast
    ip.o(.text) refers to ip_frag.o(.text) for ip_reass
    ip.o(.text) refers to raw.o(.text) for raw_input
    ip.o(.text) refers to udp.o(.text) for udp_input
    ip.o(.text) refers to tcp_in.o(.text) for tcp_input
    ip.o(.text) refers to icmp.o(.text) for icmp_input
    ip.o(.text) refers to netif.o(.data) for netif_list
    ip.o(.text) refers to ip.o(.data) for current_netif
    ip_frag.o(.text) refers to memp.o(.text) for memp_free
    ip_frag.o(.text) refers to rt_memcpy_v6.o(.text) for __aeabi_memcpy
    ip_frag.o(.text) refers to icmp.o(.text) for icmp_time_exceeded
    ip_frag.o(.text) refers to pbuf.o(.text) for pbuf_clen
    ip_frag.o(.text) refers to rt_memclr_w.o(.text) for __aeabi_memclr4
    ip_frag.o(.text) refers to inet.o(.text) for ntohs
    ip_frag.o(.text) refers to ip_frag.o(.data) for reassdatagrams
    ip_frag.o(.text) refers to inet_chksum.o(.text) for inet_chksum
    ip_frag.o(.text) refers to ip_frag.o(.bss) for buf
    etharp.o(.text) refers to pbuf.o(.text) for pbuf_free
    etharp.o(.text) refers to memp.o(.text) for memp_free
    etharp.o(.text) refers to inet.o(.text) for htons
    etharp.o(.text) refers to ip_addr.o(.text) for ip_addr_isbroadcast
    etharp.o(.text) refers to etharp.o(.bss) for arp_table
    etharp.o(.text) refers to etharp.o(.data) for etharp_cached_entry
    etharp.o(.text) refers to autoip.o(.text) for autoip_arp_reply
    etharp.o(.text) refers to etharp.o(.constdata) for ethbroadcast
    etharp.o(.text) refers to ip.o(.text) for ip_input
    ethernetif.o(.text) refers to stm32f2x7_eth.o(.text) for ETH_MACAddressConfig
    ethernetif.o(.text) refers to rt_memcpy_v6.o(.text) for __aeabi_memcpy
    ethernetif.o(.text) refers to pbuf.o(.text) for pbuf_alloc
    ethernetif.o(.text) refers to mynet.o(.data) for NetLocalMac
    ethernetif.o(.text) refers to stm32f2x7_eth.o(.bss) for Tx_Buff
    ethernetif.o(.text) refers to stm32f2x7_eth.o(.data) for DMATxDescToSet
    ethernetif.o(.text) refers to etharp.o(.text) for etharp_output
    stm32f2xx_gpio.o(.text) refers to stm32f2xx_rcc.o(.text) for RCC_AHB1PeriphResetCmd
    stm32f2xx_i2c.o(.text) refers to stm32f2xx_rcc.o(.text) for RCC_APB1PeriphResetCmd
    stm32f2xx_pwr.o(.text) refers to stm32f2xx_rcc.o(.text) for RCC_APB1PeriphResetCmd
    stm32f2xx_rcc.o(.text) refers to stm32f2xx_rcc.o(.data) for APBAHBPrescTable
    stm32f2xx_spi.o(.text) refers to stm32f2xx_rcc.o(.text) for RCC_APB2PeriphResetCmd
    stm32f2xx_syscfg.o(.text) refers to stm32f2xx_rcc.o(.text) for RCC_APB2PeriphResetCmd
    stm32f2xx_tim.o(.text) refers to stm32f2xx_rcc.o(.text) for RCC_APB2PeriphResetCmd
    stm32f2xx_usart.o(.text) refers to stm32f2xx_rcc.o(.text) for RCC_APB2PeriphResetCmd
    process_net.o(.text) refers to mynet.o(.text) for NetIp4toIp32
    process_net.o(.text) refers to mem_str.o(.text) for mem_cpy
    process_net.o(.text) refers to mylwip.o(.text) for UdpControlSend
    process_net.o(.text) refers to mymiscfunc.o(.text) for Delay
    process_net.o(.text) refers to mystorage.o(.text) for StorageInfoSave
    process_net.o(.text) refers to bsp_dev_id.o(.text) for check_devid
    process_net.o(.text) refers to process_net.o(.data) for Hled_run_status
    process_net.o(.text) refers to myapp.o(.data) for DevType
    process_net.o(.text) refers to myprotocol.o(.data) for ProtocolLocalInfo
    process_net.o(.text) refers to mynet.o(.data) for NetLocalIp
    process_net.o(.text) refers to process_ledscreen.o(.constdata) for software_version
    process_net.o(.text) refers to process_net.o(.bss) for pack_data
    process_net.o(.text) refers to process_net.o(.constdata) for Evt_udp_CtrlMsg_send_Tbl_ledScreen
    process_net.o(.text) refers to process_ledscreen.o(.text) for turn_off_screen
    process_net.o(.text) refers to aeabi_memset.o(.text) for __aeabi_memset
    process_net.o(.text) refers to process_ledscreen.o(.data) for roll_speed
    process_net.o(.text) refers to rt_memcpy_v6.o(.text) for __aeabi_memcpy
    process_net.o(.text) refers to memcmp.o(.text) for memcmp
    process_net.o(.text) refers to myhttpd.o(.text) for set_run_iap_req
    process_net.o(.text) refers to tftp_cli.o(.text) for tftp_cli_start
    process_net.o(.text) refers to h1_alloc.o(.text) for malloc
    process_net.o(.text) refers to h1_free.o(.text) for free
    process_net.o(.constdata) refers to process_net.o(.text) for send_ProcessData_ledScreen
    process_ledscreen.o(.text) refers to _printf_percent.o(.ARM.Collect$$_printf_percent$$00000000) for _printf_percent
    process_ledscreen.o(.text) refers to _printf_s.o(.ARM.Collect$$_printf_percent$$00000014) for _printf_s
    process_ledscreen.o(.text) refers to _printf_str.o(.text) for _printf_str
    process_ledscreen.o(.text) refers to _printf_d.o(.ARM.Collect$$_printf_percent$$00000009) for _printf_d
    process_ledscreen.o(.text) refers to _printf_dec.o(.text) for _printf_int_dec
    process_ledscreen.o(.text) refers to aeabi_memset.o(.text) for __aeabi_memset
    process_ledscreen.o(.text) refers to rt_memcpy_v6.o(.text) for __aeabi_memcpy
    process_ledscreen.o(.text) refers to rt_memclr_w.o(.text) for __aeabi_memclr4
    process_ledscreen.o(.text) refers to noretval__2sprintf.o(.text) for __2sprintf
    process_ledscreen.o(.text) refers to strcat.o(.text) for strcat
    process_ledscreen.o(.text) refers to process_ledscreen.o(.data) for DISP_COL_TAIL
    process_ledscreen.o(.text) refers to process_ledscreen.o(.bss) for red_tmp
    process_ledscreen.o(.text) refers to hc595.o(.bss) for green_CN
    process_ledscreen.o(.text) refers to process_ledscreen.o(.constdata) for ceshizhong
    process_ledscreen.o(.text) refers to strlen.o(.text) for strlen
    process_ledscreen.o(.text) refers to stm32f2xx_gpio.o(.text) for GPIO_ResetBits
    process_ledscreen.o(.text) refers to process_net.o(.text) for clr_dispinfo
    process_ledscreen.o(.text) refers to myprotocol.o(.data) for ProtocolLocalInfo
    process_ledscreen.o(.text) refers to main.o(.data) for refresh_flag
    process_ledscreen.o(.text) refers to process_net.o(.bss) for netCNDispInfo
    process_ledscreen.o(.text) refers to memcmp.o(.text) for memcmp
    process_ledscreen.o(.text) refers to hc595.o(.text) for Refresh_74HC595_status
    process_ledscreen.o(.data) refers to process_ledscreen.o(.text) for callback_SCREEN_MODE_stationID_m1
    flash_if.o(.text) refers to p_sys.o(.text) for feed_dog
    flash_if.o(.text) refers to stm32f2xx_flash.o(.text) for FLASH_Unlock
    flash_if.o(.text) refers to process_ledscreen.o(.text) for turn_off_screen_clrbuf
    flash_if.o(.text) refers to mymiscfunc.o(.text) for Delay
    flash_if.o(.text) refers to system_stm32f2xx.o(.text) for SystemInit
    flash_if.o(.text) refers to core_cm3.o(.emb_text) for __set_MSP
    flash_if.o(.text) refers to misc.o(.text) for NVIC_SetVectorTable
    flash_if.o(.text) refers to flash_if.o(.data) for JumpAddress
    tftpserver.o(.text) refers to inet.o(.text) for ntohs
    tftpserver.o(.text) refers to pbuf.o(.text) for pbuf_alloc
    tftpserver.o(.text) refers to udp.o(.text) for udp_sendto
    tftpserver.o(.text) refers to mem.o(.text) for mem_malloc
    tftpserver.o(.text) refers to flash_if.o(.text) for clr_prog_flag
    tftpserver.o(.text) refers to strncpy.o(.text) for strncpy
    tftpserver.o(.text) refers to strcmpv7m.o(.text) for strcmp
    tftpserver.o(.text) refers to tftpserver.o(.data) for total_count
    tftpserver.o(.text) refers to ip_addr.o(.constdata) for ip_addr_any
    tftp_cli.o(.text) refers to pbuf.o(.text) for pbuf_alloc
    tftp_cli.o(.text) refers to udp.o(.text) for udp_sendto
    tftp_cli.o(.text) refers to strlen.o(.text) for strlen
    tftp_cli.o(.text) refers to h1_alloc.o(.text) for malloc
    tftp_cli.o(.text) refers to rt_memclr.o(.text) for __aeabi_memclr
    tftp_cli.o(.text) refers to inet.o(.text) for htons
    tftp_cli.o(.text) refers to rt_memcpy_v6.o(.text) for __aeabi_memcpy
    tftp_cli.o(.text) refers to h1_free.o(.text) for free
    tftp_cli.o(.text) refers to flash_if.o(.text) for clr_prog_flag
    tftp_cli.o(.text) refers to stm32f2xx_flash.o(.text) for FLASH_Lock
    tftp_cli.o(.text) refers to p_sys.o(.text) for get_timer0_clock
    tftp_cli.o(.text) refers to rt_memclr_w.o(.text) for __aeabi_memclr4
    tftp_cli.o(.text) refers to tftp_cli.o(.data) for err_codes
    tftp_cli.o(.text) refers to tftp_cli.o(.bss) for tftp_conn_cli
    tftp_cli.o(.text) refers to strncmp.o(.text) for strncmp
    tftp_cli.o(.text) refers to ip_addr.o(.constdata) for ip_addr_any
    tftp_cli.o(.data) refers to tftp_cli.o(.conststring) for .conststring
    malloc.o(.text) refers (Special) to hguard.o(.text) for __heap$guard
    malloc.o(.text) refers (Special) to init_alloc.o(.text) for _init_alloc
    malloc.o(.text) refers to rt_heap_descriptor_intlibspace.o(.text) for __rt_heap_descriptor
    malloc.o(.text) refers to heapstubs.o(.text) for __Heap_Alloc
    free.o(.text) refers (Special) to hguard.o(.text) for __heap$guard
    free.o(.text) refers to rt_heap_descriptor_intlibspace.o(.text) for __rt_heap_descriptor
    free.o(.text) refers to heapstubs.o(.text) for __Heap_Free
    h1_alloc.o(.text) refers (Special) to h1_init.o(.text) for __Heap_Initialize
    h1_alloc.o(.text) refers to rt_heap_descriptor_intlibspace.o(.text) for __rt_heap_descriptor
    h1_alloc.o(.text) refers to init_alloc.o(.text) for __Heap_Full
    h1_free.o(.text) refers to rt_heap_descriptor_intlibspace.o(.text) for __rt_heap_descriptor
    h1_alloc_mt.o(.text) refers (Special) to h1_init.o(.text) for __Heap_Initialize
    h1_alloc_mt.o(.text) refers to init_alloc.o(.text) for __Heap_Full
    h1_alloc_mt.o(.text) refers to rt_heap_descriptor_intlibspace.o(.text) for __rt_heap_descriptor
    h1_free_mt.o(.text) refers to rt_heap_descriptor_intlibspace.o(.text) for __rt_heap_descriptor
    heap2.o(i._FDIterate) refers to heap2.o(.constdata) for .constdata
    heap2.o(i.___Heap_ProvideMemory$realtime) refers to fdtree.o(i._FDTree_Delete) for _FDTree_Delete
    heap2.o(i.___Heap_ProvideMemory$realtime) refers to fdtree.o(i._FDTree_Insert) for _FDTree_Insert
    heap2.o(i.___Heap_Stats$realtime) refers to heap2.o(i._Heap2_StatsIterate) for _Heap2_StatsIterate
    heap2.o(i.___Heap_Valid$realtime) refers to heap2.o(i._FDIterate) for _FDIterate
    heap2.o(i.___Heap_Valid$realtime) refers to heap2.o(.constdata) for .constdata
    heap2.o(i._free$realtime) refers to rt_heap_descriptor_intlibspace.o(.text) for __rt_heap_descriptor
    heap2.o(i._free$realtime) refers to fdtree.o(i._FDTree_Delete) for _FDTree_Delete
    heap2.o(i._free$realtime) refers to fdtree.o(i._FDTree_Insert) for _FDTree_Insert
    heap2.o(i._malloc$realtime) refers to rt_heap_descriptor_intlibspace.o(.text) for __rt_heap_descriptor
    heap2.o(i._malloc$realtime) refers to fdtree.o(i._FDTree_FindFirst) for _FDTree_FindFirst
    heap2.o(i._malloc$realtime) refers to init_alloc.o(.text) for __Heap_Full
    heap2.o(i._malloc$realtime) refers to fdtree.o(i._FDTree_RemoveNode) for _FDTree_RemoveNode
    heap2.o(i._malloc$realtime) refers to fdtree.o(i._FDTree_Insert) for _FDTree_Insert
    heap2.o(i._posix_memalign$realtime) refers to rt_heap_descriptor_intlibspace.o(.text) for __rt_heap_descriptor
    heap2.o(i._posix_memalign$realtime) refers to fdtree.o(i._FDTree_FindFirst) for _FDTree_FindFirst
    heap2.o(i._posix_memalign$realtime) refers to init_alloc.o(.text) for __Heap_Full
    heap2.o(i._posix_memalign$realtime) refers to fdtree.o(i._FDTree_RemoveNode) for _FDTree_RemoveNode
    heap2.o(i._posix_memalign$realtime) refers to fdtree.o(i._FDTree_Insert) for _FDTree_Insert
    heap2.o(i._realloc$realtime) refers to rt_heap_descriptor_intlibspace.o(.text) for __rt_heap_descriptor
    heap2.o(i._realloc$realtime) refers to h1_free.o(.text) for free
    heap2.o(i._realloc$realtime) refers to h1_alloc.o(.text) for malloc
    heap2.o(i._realloc$realtime) refers to fdtree.o(i._FDTree_Delete) for _FDTree_Delete
    heap2.o(i._realloc$realtime) refers to fdtree.o(i._FDTree_Insert) for _FDTree_Insert
    heap2.o(i._realloc$realtime) refers to rt_memcpy_w.o(.text) for __aeabi_memcpy4
    heap2mt.o(i._FDIterate) refers to heap2mt.o(.constdata) for .constdata
    heap2mt.o(i.___Heap_Initialize$realtime$concurrent) refers to mutex_dummy.o(.text) for _mutex_initialize
    heap2mt.o(i.___Heap_ProvideMemory$realtime$concurrent) refers to fdtree.o(i._FDTree_Delete) for _FDTree_Delete
    heap2mt.o(i.___Heap_ProvideMemory$realtime$concurrent) refers to fdtree.o(i._FDTree_Insert) for _FDTree_Insert
    heap2mt.o(i.___Heap_Stats$realtime$concurrent) refers to heap2mt.o(i._Heap2_StatsIterate) for _Heap2_StatsIterate
    heap2mt.o(i.___Heap_Valid$realtime$concurrent) refers to heap2mt.o(i._FDIterate) for _FDIterate
    heap2mt.o(i.___Heap_Valid$realtime$concurrent) refers to heap2mt.o(.constdata) for .constdata
    heap2mt.o(i._free$realtime$concurrent) refers to rt_heap_descriptor_intlibspace.o(.text) for __rt_heap_descriptor
    heap2mt.o(i._free$realtime$concurrent) refers to fdtree.o(i._FDTree_Delete) for _FDTree_Delete
    heap2mt.o(i._free$realtime$concurrent) refers to fdtree.o(i._FDTree_Insert) for _FDTree_Insert
    heap2mt.o(i._malloc$realtime$concurrent) refers to rt_heap_descriptor_intlibspace.o(.text) for __rt_heap_descriptor
    heap2mt.o(i._malloc$realtime$concurrent) refers to fdtree.o(i._FDTree_FindFirst) for _FDTree_FindFirst
    heap2mt.o(i._malloc$realtime$concurrent) refers to init_alloc.o(.text) for __Heap_Full
    heap2mt.o(i._malloc$realtime$concurrent) refers to fdtree.o(i._FDTree_RemoveNode) for _FDTree_RemoveNode
    heap2mt.o(i._malloc$realtime$concurrent) refers to fdtree.o(i._FDTree_Insert) for _FDTree_Insert
    heap2mt.o(i._posix_memalign$realtime$concurrent) refers to rt_heap_descriptor_intlibspace.o(.text) for __rt_heap_descriptor
    heap2mt.o(i._posix_memalign$realtime$concurrent) refers to fdtree.o(i._FDTree_FindFirst) for _FDTree_FindFirst
    heap2mt.o(i._posix_memalign$realtime$concurrent) refers to init_alloc.o(.text) for __Heap_Full
    heap2mt.o(i._posix_memalign$realtime$concurrent) refers to fdtree.o(i._FDTree_RemoveNode) for _FDTree_RemoveNode
    heap2mt.o(i._posix_memalign$realtime$concurrent) refers to fdtree.o(i._FDTree_Insert) for _FDTree_Insert
    heap2mt.o(i._realloc$realtime$concurrent) refers to rt_heap_descriptor_intlibspace.o(.text) for __rt_heap_descriptor
    heap2mt.o(i._realloc$realtime$concurrent) refers to h1_free.o(.text) for free
    heap2mt.o(i._realloc$realtime$concurrent) refers to h1_alloc.o(.text) for malloc
    heap2mt.o(i._realloc$realtime$concurrent) refers to fdtree.o(i._FDTree_Delete) for _FDTree_Delete
    heap2mt.o(i._realloc$realtime$concurrent) refers to fdtree.o(i._FDTree_Insert) for _FDTree_Insert
    heap2mt.o(i._realloc$realtime$concurrent) refers to rt_memcpy_w.o(.text) for __aeabi_memcpy4
    __2sprintf.o(.text) refers to _printf_char_common.o(.text) for _printf_char_common
    __2sprintf.o(.text) refers to _sputc.o(.text) for _sputc
    noretval__2sprintf.o(.text) refers to _printf_char_common.o(.text) for _printf_char_common
    noretval__2sprintf.o(.text) refers to _sputc.o(.text) for _sputc
    __printf.o(.text) refers to _printf_percent.o(.ARM.Collect$$_printf_percent$$00000000) for _printf_percent
    _printf_str.o(.text) refers (Special) to _printf_char.o(.text) for _printf_cs_common
    _printf_str.o(.text) refers (Weak) to _printf_pad.o(.text) for _printf_pre_padding
    _printf_str.o(.text) refers (Weak) to _printf_pad.o(.text) for _printf_post_padding
    _printf_dec.o(.text) refers to _printf_intcommon.o(.text) for _printf_int_common
    _printf_hex_ll.o(.text) refers to _printf_intcommon.o(.text) for _printf_int_common
    _printf_hex_ll.o(.text) refers to _printf_hex_ll.o(.constdata) for .constdata
    _printf_hex_int.o(.text) refers to _printf_intcommon.o(.text) for _printf_int_common
    _printf_hex_int.o(.text) refers to _printf_hex_int.o(.constdata) for .constdata
    _printf_hex_int_ll.o(.text) refers to _printf_intcommon.o(.text) for _printf_int_common
    _printf_hex_int_ll.o(.text) refers to _printf_hex_int_ll.o(.constdata) for .constdata
    _printf_hex_ptr.o(.text) refers to _printf_intcommon.o(.text) for _printf_int_common
    _printf_hex_ptr.o(.text) refers to _printf_hex_ptr.o(.constdata) for .constdata
    _printf_hex_int_ptr.o(.text) refers to _printf_intcommon.o(.text) for _printf_int_common
    _printf_hex_int_ptr.o(.text) refers to _printf_hex_int_ptr.o(.constdata) for .constdata
    _printf_hex_ll_ptr.o(.text) refers to _printf_intcommon.o(.text) for _printf_int_common
    _printf_hex_ll_ptr.o(.text) refers to _printf_hex_ll_ptr.o(.constdata) for .constdata
    _printf_hex_int_ll_ptr.o(.text) refers to _printf_intcommon.o(.text) for _printf_int_common
    _printf_hex_int_ll_ptr.o(.text) refers to _printf_hex_int_ll_ptr.o(.constdata) for .constdata
    __printf_flags.o(.text) refers to _printf_percent.o(.ARM.Collect$$_printf_percent$$00000000) for _printf_percent
    __printf_flags.o(.text) refers to __printf_flags.o(.constdata) for .constdata
    __printf_ss.o(.text) refers to _printf_percent.o(.ARM.Collect$$_printf_percent$$00000000) for _printf_percent
    __printf_flags_ss.o(.text) refers to _printf_percent.o(.ARM.Collect$$_printf_percent$$00000000) for _printf_percent
    __printf_flags_ss.o(.text) refers to __printf_flags_ss.o(.constdata) for .constdata
    __printf_wp.o(.text) refers to __printf_wp.o(i._is_digit) for _is_digit
    __printf_wp.o(.text) refers to _printf_percent.o(.ARM.Collect$$_printf_percent$$00000000) for _printf_percent
    __printf_flags_wp.o(.text) refers to __printf_wp.o(i._is_digit) for _is_digit
    __printf_flags_wp.o(.text) refers to _printf_percent.o(.ARM.Collect$$_printf_percent$$00000000) for _printf_percent
    __printf_flags_wp.o(.text) refers to __printf_flags_wp.o(.constdata) for .constdata
    __printf_ss_wp.o(.text) refers to __printf_wp.o(i._is_digit) for _is_digit
    __printf_ss_wp.o(.text) refers to _printf_percent.o(.ARM.Collect$$_printf_percent$$00000000) for _printf_percent
    __printf_flags_ss_wp.o(.text) refers to __printf_wp.o(i._is_digit) for _is_digit
    __printf_flags_ss_wp.o(.text) refers to _printf_percent.o(.ARM.Collect$$_printf_percent$$00000000) for _printf_percent
    __printf_flags_ss_wp.o(.text) refers to __printf_flags_ss_wp.o(.constdata) for .constdata
    _printf_s.o(.ARM.Collect$$_printf_percent$$00000014) refers (Weak) to _printf_char.o(.text) for _printf_string
    _printf_x.o(.ARM.Collect$$_printf_percent$$0000000C) refers (Weak) to _printf_hex_int.o(.text) for _printf_int_hex
    _printf_d.o(.ARM.Collect$$_printf_percent$$00000009) refers (Weak) to _printf_dec.o(.text) for _printf_int_dec
    _printf_percent.o(.ARM.Collect$$_printf_percent$$00000000) refers (Special) to _printf_percent_end.o(.ARM.Collect$$_printf_percent$$00000017) for _printf_percent_end
    rt_memcpy_v6.o(.text) refers to rt_memcpy_w.o(.text) for __aeabi_memcpy4
    aeabi_memset.o(.text) refers to rt_memclr.o(.text) for _memset
    rt_memclr.o(.text) refers to rt_memclr_w.o(.text) for _memset_w
    strncpy.o(.text) refers to rt_memclr.o(.text) for __aeabi_memclr
    __main.o(!!!main) refers to rtentry.o(.ARM.Collect$$rtentry$$00000000) for __rt_entry
    rtentry.o(.ARM.Collect$$rtentry$$00000000) refers (Special) to rtentry2.o(.ARM.Collect$$rtentry$$0000000A) for __rt_entry_li
    rtentry.o(.ARM.Collect$$rtentry$$00000000) refers (Special) to rtentry2.o(.ARM.Collect$$rtentry$$0000000D) for __rt_entry_main
    rtentry.o(.ARM.Collect$$rtentry$$00000000) refers (Special) to rtentry2.o(.ARM.Collect$$rtentry$$0000000C) for __rt_entry_postli_1
    rtentry.o(.ARM.Collect$$rtentry$$00000000) refers (Special) to rtentry2.o(.ARM.Collect$$rtentry$$00000009) for __rt_entry_postsh_1
    rtentry.o(.ARM.Collect$$rtentry$$00000000) refers (Special) to rtentry2.o(.ARM.Collect$$rtentry$$00000002) for __rt_entry_presh_1
    rtentry.o(.ARM.Collect$$rtentry$$00000000) refers (Special) to rtentry4.o(.ARM.Collect$$rtentry$$00000004) for __rt_entry_sh
    rt_heap_descriptor.o(.text) refers to rt_heap_descriptor.o(.bss) for __rt_heap_descriptor_data
    rt_heap_descriptor_intlibspace.o(.text) refers to libspace.o(.bss) for __libspace_start
    init_alloc.o(.text) refers (Special) to hguard.o(.text) for __heap$guard
    init_alloc.o(.text) refers (Special) to libinit2.o(.ARM.Collect$$libinit$$00000001) for __rt_lib_init_heap_2
    init_alloc.o(.text) refers (Special) to maybetermalloc1.o(.emb_text) for _maybe_terminate_alloc
    init_alloc.o(.text) refers to h1_extend.o(.text) for __Heap_ProvideMemory
    init_alloc.o(.text) refers to defsig_rtmem_outer.o(.text) for __rt_SIGRTMEM
    init_alloc.o(.text) refers to rt_heap_descriptor_intlibspace.o(.text) for __rt_heap_descriptor
    init_alloc.o(.text) refers to h1_init.o(.text) for __Heap_Initialize
    h1_init_mt.o(.text) refers to mutex_dummy.o(.text) for _mutex_initialize
    _printf_intcommon.o(.text) refers (Weak) to _printf_pad.o(.text) for _printf_pre_padding
    _printf_intcommon.o(.text) refers (Weak) to _printf_pad.o(.text) for _printf_pre_padding
    _printf_intcommon.o(.text) refers (Weak) to _printf_pad.o(.text) for _printf_post_padding
    _printf_char_common.o(.text) refers to __printf_flags_wp.o(.text) for __printf
    _printf_char.o(.text) refers (Weak) to _printf_str.o(.text) for _printf_str
    _get_argv.o(.text) refers (Special) to hrguard.o(.text) for __heap_region$guard
    _get_argv.o(.text) refers to h1_alloc.o(.text) for malloc
    _get_argv.o(.text) refers to defsig_rtmem_outer.o(.text) for __rt_SIGRTMEM
    _get_argv.o(.text) refers to sys_command.o(.text) for _sys_command_string
    libinit2.o(.ARM.Collect$$libinit$$00000001) refers (Weak) to init_alloc.o(.text) for _init_alloc
    libinit2.o(.ARM.Collect$$libinit$$0000000C) refers to libinit2.o(.ARM.Collect$$libinit$$0000000B) for .ARM.Collect$$libinit$$0000000B
    libinit2.o(.ARM.Collect$$libinit$$0000000E) refers to libinit2.o(.ARM.Collect$$libinit$$0000000B) for .ARM.Collect$$libinit$$0000000B
    libinit2.o(.ARM.Collect$$libinit$$00000010) refers to libinit2.o(.ARM.Collect$$libinit$$0000000B) for .ARM.Collect$$libinit$$0000000B
    libinit2.o(.ARM.Collect$$libinit$$00000012) refers to libinit2.o(.ARM.Collect$$libinit$$0000000B) for .ARM.Collect$$libinit$$0000000B
    libinit2.o(.ARM.Collect$$libinit$$00000014) refers to libinit2.o(.ARM.Collect$$libinit$$0000000B) for .ARM.Collect$$libinit$$0000000B
    libinit2.o(.ARM.Collect$$libinit$$00000022) refers to argv_veneer.o(.emb_text) for __ARM_argv_veneer
    libinit2.o(.ARM.Collect$$libinit$$00000023) refers to argv_veneer.o(.emb_text) for __ARM_argv_veneer
    sys_command.o(.text) refers (Special) to use_no_semi.o(.text) for __I$use$semihosting
    sys_command.o(.text) refers (Special) to indicate_semi.o(.text) for __semihosting_library_function
    libspace.o(.text) refers to libspace.o(.bss) for __libspace_start
    rtentry2.o(.ARM.Collect$$rtentry$$00000008) refers to boardinit2.o(.text) for _platform_post_stackheap_init
    rtentry2.o(.ARM.Collect$$rtentry$$0000000A) refers to libinit.o(.ARM.Collect$$libinit$$00000000) for __rt_lib_init
    rtentry2.o(.ARM.Collect$$rtentry$$0000000B) refers to boardinit3.o(.text) for _platform_post_lib_init
    rtentry2.o(.ARM.Collect$$rtentry$$0000000D) refers to main.o(.text) for main
    rtentry2.o(.ARM.Collect$$rtentry$$0000000D) refers to exit.o(.text) for exit
    rtentry2.o(.ARM.exidx) refers to rtentry2.o(.ARM.Collect$$rtentry$$00000001) for .ARM.Collect$$rtentry$$00000001
    rtentry2.o(.ARM.exidx) refers to rtentry2.o(.ARM.Collect$$rtentry$$00000008) for .ARM.Collect$$rtentry$$00000008
    rtentry2.o(.ARM.exidx) refers to rtentry2.o(.ARM.Collect$$rtentry$$0000000A) for .ARM.Collect$$rtentry$$0000000A
    rtentry2.o(.ARM.exidx) refers to rtentry2.o(.ARM.Collect$$rtentry$$0000000B) for .ARM.Collect$$rtentry$$0000000B
    rtentry2.o(.ARM.exidx) refers to rtentry2.o(.ARM.Collect$$rtentry$$0000000D) for .ARM.Collect$$rtentry$$0000000D
    rtentry4.o(.ARM.Collect$$rtentry$$00000004) refers to sys_stackheap_outer.o(.text) for __user_setup_stackheap
    rtentry4.o(.ARM.exidx) refers to rtentry4.o(.ARM.Collect$$rtentry$$00000004) for .ARM.Collect$$rtentry$$00000004
    maybetermalloc2.o(.emb_text) refers (Special) to term_alloc.o(.text) for _terminate_alloc
    h1_extend.o(.text) refers to h1_free.o(.text) for free
    h1_extend_mt.o(.text) refers to h1_free_mt.o(.text) for _free_internal
    defsig_rtmem_outer.o(.text) refers to defsig_rtmem_inner.o(.text) for __rt_SIGRTMEM_inner
    defsig_rtmem_outer.o(.text) refers to defsig_exit.o(.text) for __sig_exit
    defsig_rtmem_formal.o(.text) refers to rt_raise.o(.text) for __rt_raise
    heapauxa.o(.text) refers to heapauxa.o(.data) for .data
    argv_veneer.o(.emb_text) refers to no_argv.o(.text) for __ARM_get_argv
    sys_stackheap_outer.o(.text) refers to libspace.o(.text) for __user_perproc_libspace
    sys_stackheap_outer.o(.text) refers to startup_stm32f2xx.o(.text) for __user_initial_stackheap
    rt_raise.o(.text) refers to __raise.o(.text) for __raise
    rt_raise.o(.text) refers to sys_exit.o(.text) for _sys_exit
    term_alloc.o(.text) refers (Special) to libshutdown2.o(.ARM.Collect$$libshutdown$$0000000D) for __rt_lib_shutdown_heap_2
    term_alloc.o(.text) refers to rt_heap_descriptor_intlibspace.o(.text) for __rt_heap_descriptor
    term_alloc.o(.text) refers to h1_final.o(.text) for __Heap_Finalize
    exit.o(.text) refers to rtexit.o(.ARM.Collect$$rtexit$$00000000) for __rt_exit
    defsig_exit.o(.text) refers to sys_exit.o(.text) for _sys_exit
    defsig_rtmem_inner.o(.text) refers to defsig_general.o(.text) for __default_signal_display
    _get_argv_nomalloc.o(.text) refers (Special) to hrguard.o(.text) for __heap_region$guard
    _get_argv_nomalloc.o(.text) refers to defsig_rtmem_outer.o(.text) for __rt_SIGRTMEM
    _get_argv_nomalloc.o(.text) refers to sys_command.o(.text) for _sys_command_string
    libinit.o(.ARM.Collect$$libinit$$00000000) refers (Special) to libinit2.o(.ARM.Collect$$libinit$$0000002A) for __rt_lib_init_alloca_1
    libinit.o(.ARM.Collect$$libinit$$00000000) refers (Special) to libinit2.o(.ARM.Collect$$libinit$$00000028) for __rt_lib_init_argv_1
    libinit.o(.ARM.Collect$$libinit$$00000000) refers (Special) to libinit2.o(.ARM.Collect$$libinit$$00000017) for __rt_lib_init_atexit_1
    libinit.o(.ARM.Collect$$libinit$$00000000) refers (Special) to libinit2.o(.ARM.Collect$$libinit$$0000001D) for __rt_lib_init_clock_1
    libinit.o(.ARM.Collect$$libinit$$00000000) refers (Special) to libinit2.o(.ARM.Collect$$libinit$$0000002E) for __rt_lib_init_cpp_1
    libinit.o(.ARM.Collect$$libinit$$00000000) refers (Special) to libinit2.o(.ARM.Collect$$libinit$$0000002C) for __rt_lib_init_exceptions_1
    libinit.o(.ARM.Collect$$libinit$$00000000) refers (Special) to libinit2.o(.ARM.Collect$$libinit$$0000001B) for __rt_lib_init_fp_trap_1
    libinit.o(.ARM.Collect$$libinit$$00000000) refers (Special) to libinit2.o(.ARM.Collect$$libinit$$0000001F) for __rt_lib_init_getenv_1
    libinit.o(.ARM.Collect$$libinit$$00000000) refers (Special) to libinit2.o(.ARM.Collect$$libinit$$00000006) for __rt_lib_init_heap_1
    libinit.o(.ARM.Collect$$libinit$$00000000) refers (Special) to libinit2.o(.ARM.Collect$$libinit$$0000000D) for __rt_lib_init_lc_collate_1
    libinit.o(.ARM.Collect$$libinit$$00000000) refers (Special) to libinit2.o(.ARM.Collect$$libinit$$0000000F) for __rt_lib_init_lc_ctype_1
    libinit.o(.ARM.Collect$$libinit$$00000000) refers (Special) to libinit2.o(.ARM.Collect$$libinit$$00000011) for __rt_lib_init_lc_monetary_1
    libinit.o(.ARM.Collect$$libinit$$00000000) refers (Special) to libinit2.o(.ARM.Collect$$libinit$$00000013) for __rt_lib_init_lc_numeric_1
    libinit.o(.ARM.Collect$$libinit$$00000000) refers (Special) to libinit2.o(.ARM.Collect$$libinit$$00000015) for __rt_lib_init_lc_time_1
    libinit.o(.ARM.Collect$$libinit$$00000000) refers (Special) to libinit2.o(.ARM.Collect$$libinit$$0000000A) for __rt_lib_init_rand_1
    libinit.o(.ARM.Collect$$libinit$$00000000) refers (Special) to libinit2.o(.ARM.Collect$$libinit$$0000002F) for __rt_lib_init_return
    libinit.o(.ARM.Collect$$libinit$$00000000) refers (Special) to libinit2.o(.ARM.Collect$$libinit$$00000019) for __rt_lib_init_signal_1
    libinit.o(.ARM.Collect$$libinit$$00000000) refers (Special) to libinit2.o(.ARM.Collect$$libinit$$00000021) for __rt_lib_init_stdio_1
    libinit.o(.ARM.Collect$$libinit$$00000000) refers (Special) to libinit2.o(.ARM.Collect$$libinit$$00000008) for __rt_lib_init_user_alloc_1
    libinit.o(.ARM.Collect$$libinit$$00000000) refers to fpinit.o(x$fpl$fpinit) for _fp_init
    sys_exit.o(.text) refers (Special) to use_no_semi.o(.text) for __I$use$semihosting
    sys_exit.o(.text) refers (Special) to indicate_semi.o(.text) for __semihosting_library_function
    rtexit.o(.ARM.Collect$$rtexit$$00000000) refers (Special) to rtexit2.o(.ARM.Collect$$rtexit$$00000004) for __rt_exit_exit
    rtexit.o(.ARM.Collect$$rtexit$$00000000) refers (Special) to rtexit2.o(.ARM.Collect$$rtexit$$00000003) for __rt_exit_ls
    rtexit.o(.ARM.Collect$$rtexit$$00000000) refers (Special) to rtexit2.o(.ARM.Collect$$rtexit$$00000002) for __rt_exit_prels_1
    rtexit.o(.ARM.exidx) refers (Special) to rtexit2.o(.ARM.Collect$$rtexit$$00000004) for __rt_exit_exit
    rtexit.o(.ARM.exidx) refers (Special) to rtexit2.o(.ARM.Collect$$rtexit$$00000003) for __rt_exit_ls
    rtexit.o(.ARM.exidx) refers (Special) to rtexit2.o(.ARM.Collect$$rtexit$$00000002) for __rt_exit_prels_1
    rtexit.o(.ARM.exidx) refers to rtexit.o(.ARM.Collect$$rtexit$$00000000) for .ARM.Collect$$rtexit$$00000000
    __raise.o(.text) refers to defsig.o(CL$$defsig) for __default_signal_handler
    defsig_general.o(.text) refers to sys_wrch.o(.text) for _ttywrch
    libshutdown2.o(.ARM.Collect$$libshutdown$$0000000C) refers (Weak) to term_alloc.o(.text) for _terminate_alloc
    fpinit.o(x$fpl$fpinit) refers to rt_fp_status_addr_intlibspace.o(.text) for __rt_fp_status_addr
    sys_wrch.o(.text) refers (Special) to use_no_semi.o(.text) for __I$use$semihosting
    sys_wrch.o(.text) refers (Special) to indicate_semi.o(.text) for __semihosting_library_function
    rtexit2.o(.ARM.Collect$$rtexit$$00000003) refers to libshutdown.o(.ARM.Collect$$libshutdown$$00000000) for __rt_lib_shutdown
    rtexit2.o(.ARM.Collect$$rtexit$$00000004) refers to sys_exit.o(.text) for _sys_exit
    rtexit2.o(.ARM.exidx) refers to rtexit2.o(.ARM.Collect$$rtexit$$00000001) for .ARM.Collect$$rtexit$$00000001
    rtexit2.o(.ARM.exidx) refers to rtexit2.o(.ARM.Collect$$rtexit$$00000003) for .ARM.Collect$$rtexit$$00000003
    rtexit2.o(.ARM.exidx) refers to rtexit2.o(.ARM.Collect$$rtexit$$00000004) for .ARM.Collect$$rtexit$$00000004
    rt_fp_status_addr.o(.text) refers to rt_fp_status_addr.o(.bss) for __rt_fp_status_addr_data
    rt_fp_status_addr_intlibspace.o(.text) refers to libspace.o(.bss) for __libspace_start
    defsig.o(CL$$defsig) refers to defsig_rtmem_inner.o(.text) for __rt_SIGRTMEM_inner
    defsig_abrt_inner.o(.text) refers to defsig_general.o(.text) for __default_signal_display
    defsig_fpe_inner.o(.text) refers to defsig_general.o(.text) for __default_signal_display
    defsig_rtred_inner.o(.text) refers to defsig_general.o(.text) for __default_signal_display
    defsig_stak_inner.o(.text) refers to defsig_general.o(.text) for __default_signal_display
    defsig_pvfn_inner.o(.text) refers to defsig_general.o(.text) for __default_signal_display
    defsig_cppl_inner.o(.text) refers to defsig_general.o(.text) for __default_signal_display
    defsig_segv_inner.o(.text) refers to defsig_general.o(.text) for __default_signal_display
    defsig_other.o(.text) refers to defsig_general.o(.text) for __default_signal_display
    libshutdown.o(.ARM.Collect$$libshutdown$$00000000) refers (Special) to libshutdown2.o(.ARM.Collect$$libshutdown$$00000006) for __rt_lib_shutdown_fp_trap_1
    libshutdown.o(.ARM.Collect$$libshutdown$$00000000) refers (Special) to libshutdown2.o(.ARM.Collect$$libshutdown$$0000000E) for __rt_lib_shutdown_heap_1
    libshutdown.o(.ARM.Collect$$libshutdown$$00000000) refers (Special) to libshutdown2.o(.ARM.Collect$$libshutdown$$0000000F) for __rt_lib_shutdown_return
    libshutdown.o(.ARM.Collect$$libshutdown$$00000000) refers (Special) to libshutdown2.o(.ARM.Collect$$libshutdown$$00000009) for __rt_lib_shutdown_signal_1
    libshutdown.o(.ARM.Collect$$libshutdown$$00000000) refers (Special) to libshutdown2.o(.ARM.Collect$$libshutdown$$00000003) for __rt_lib_shutdown_stdio_1
    libshutdown.o(.ARM.Collect$$libshutdown$$00000000) refers (Special) to libshutdown2.o(.ARM.Collect$$libshutdown$$0000000B) for __rt_lib_shutdown_user_alloc_1


==============================================================================

Removing Unused input sections from the image.

    Removing myaudiosample.o(.constdata), (96000 bytes).
    Removing myboard.o(.data), (1 bytes).
    Removing myflash.o(.text), (156 bytes).
    Removing myflash.o(.data), (12 bytes).
    Removing myswitch.o(.text), (124 bytes).
    Removing init.o(.text), (16 bytes).
    Removing stm32f2xx_dbgmcu.o(.text), (112 bytes).
    Removing stm32f2xx_exti.o(.text), (328 bytes).
    Removing stm32f2xx_pwr.o(.text), (236 bytes).
    Removing stm32f2xx_tim.o(.text), (3660 bytes).
    Removing stm32f2xx_usart.o(.text), (1202 bytes).
    Removing tftpserver.o(.text), (828 bytes).
    Removing tftpserver.o(.data), (12 bytes).

13 unused section(s) (total 102687 bytes) removed from the image.

==============================================================================

Image Symbol Table

    Local Symbols

    Symbol Name                              Value     Ov Type        Size  Object(Section)

    ../../angel/boardlib.s                   0x00000000   Number         0  boardinit1.o ABSOLUTE
    ../../angel/boardlib.s                   0x00000000   Number         0  boardshut.o ABSOLUTE
    ../../angel/boardlib.s                   0x00000000   Number         0  boardinit3.o ABSOLUTE
    ../../angel/boardlib.s                   0x00000000   Number         0  boardinit2.o ABSOLUTE
    ../../angel/dczerorl2.s                  0x00000000   Number         0  __dczerorl2.o ABSOLUTE
    ../../angel/handlers.s                   0x00000000   Number         0  __scatter_zi.o ABSOLUTE
    ../../angel/kernel.s                     0x00000000   Number         0  rtentry2.o ABSOLUTE
    ../../angel/kernel.s                     0x00000000   Number         0  rtentry4.o ABSOLUTE
    ../../angel/kernel.s                     0x00000000   Number         0  rtentry.o ABSOLUTE
    ../../angel/kernel.s                     0x00000000   Number         0  rtexit2.o ABSOLUTE
    ../../angel/kernel.s                     0x00000000   Number         0  rtexit.o ABSOLUTE
    ../../angel/rt.s                         0x00000000   Number         0  rt_raise.o ABSOLUTE
    ../../angel/rt.s                         0x00000000   Number         0  rt_heap_descriptor.o ABSOLUTE
    ../../angel/rt.s                         0x00000000   Number         0  rt_heap_descriptor_intlibspace.o ABSOLUTE
    ../../angel/rt.s                         0x00000000   Number         0  rt_fp_status_addr_intlibspace.o ABSOLUTE
    ../../angel/rt.s                         0x00000000   Number         0  rt_fp_status_addr.o ABSOLUTE
    ../../angel/scatter.s                    0x00000000   Number         0  __scatter.o ABSOLUTE
    ../../angel/startup.s                    0x00000000   Number         0  __main.o ABSOLUTE
    ../../angel/sys.s                        0x00000000   Number         0  libspace.o ABSOLUTE
    ../../angel/sys.s                        0x00000000   Number         0  sys_stackheap_outer.o ABSOLUTE
    ../../angel/sys.s                        0x00000000   Number         0  indicate_semi.o ABSOLUTE
    ../../angel/sys.s                        0x00000000   Number         0  use_no_semi.o ABSOLUTE
    ../../angel/sys.s                        0x00000000   Number         0  mutex_dummy.o ABSOLUTE
    ../../angel/sysapp.c                     0x00000000   Number         0  sys_command.o ABSOLUTE
    ../../angel/sysapp.c                     0x00000000   Number         0  sys_exit.o ABSOLUTE
    ../../angel/sysapp.c                     0x00000000   Number         0  sys_wrch.o ABSOLUTE
    ../../armsys.c                           0x00000000   Number         0  _get_argv.o ABSOLUTE
    ../../armsys.c                           0x00000000   Number         0  argv_veneer.o ABSOLUTE
    ../../armsys.c                           0x00000000   Number         0  _get_argv_nomalloc.o ABSOLUTE
    ../../armsys.c                           0x00000000   Number         0  argv_veneer.o ABSOLUTE
    ../../armsys.c                           0x00000000   Number         0  no_argv.o ABSOLUTE
    ../../fpinit.s                           0x00000000   Number         0  fpinit.o ABSOLUTE
    ../../heap1.c                            0x00000000   Number         0  h1_alloc.o ABSOLUTE
    ../../heap1.c                            0x00000000   Number         0  h1_free.o ABSOLUTE
    ../../heap1.c                            0x00000000   Number         0  h1_alloc_mt.o ABSOLUTE
    ../../heap1.c                            0x00000000   Number         0  h1_free_mt.o ABSOLUTE
    ../../heap1.c                            0x00000000   Number         0  h1_init_mt.o ABSOLUTE
    ../../heap1.c                            0x00000000   Number         0  h1_final_mt.o ABSOLUTE
    ../../heap1.c                            0x00000000   Number         0  h1_final.o ABSOLUTE
    ../../heap1.c                            0x00000000   Number         0  h1_init.o ABSOLUTE
    ../../heap1.c                            0x00000000   Number         0  h1_extend.o ABSOLUTE
    ../../heap1.c                            0x00000000   Number         0  h1_extend_mt.o ABSOLUTE
    ../../heap2.c                            0x00000000   Number         0  heap2mt.o ABSOLUTE
    ../../heap2.c                            0x00000000   Number         0  heap2.o ABSOLUTE
    ../../heap2.c                            0x00000000   Number         0  fdtree.o ABSOLUTE
    ../../heapalloc.c                        0x00000000   Number         0  heapstubs.o ABSOLUTE
    ../../heapalloc.c                        0x00000000   Number         0  hrguard.o ABSOLUTE
    ../../heapalloc.c                        0x00000000   Number         0  malloc.o ABSOLUTE
    ../../heapalloc.c                        0x00000000   Number         0  maybetermalloc1.o ABSOLUTE
    ../../heapalloc.c                        0x00000000   Number         0  term_alloc.o ABSOLUTE
    ../../heapalloc.c                        0x00000000   Number         0  free.o ABSOLUTE
    ../../heapalloc.c                        0x00000000   Number         0  maybetermalloc1.o ABSOLUTE
    ../../heapalloc.c                        0x00000000   Number         0  maybetermalloc2.o ABSOLUTE
    ../../heapalloc.c                        0x00000000   Number         0  init_alloc.o ABSOLUTE
    ../../heapalloc.c                        0x00000000   Number         0  hguard.o ABSOLUTE
    ../../heapalloc.c                        0x00000000   Number         0  maybetermalloc2.o ABSOLUTE
    ../../heapaux.c                          0x00000000   Number         0  heapauxi.o ABSOLUTE
    ../../heapaux.c                          0x00000000   Number         0  heapauxa.o ABSOLUTE
    ../../libinit.s                          0x00000000   Number         0  libinit.o ABSOLUTE
    ../../libinit.s                          0x00000000   Number         0  libshutdown2.o ABSOLUTE
    ../../libinit.s                          0x00000000   Number         0  libinit2.o ABSOLUTE
    ../../libinit.s                          0x00000000   Number         0  libshutdown.o ABSOLUTE
    ../../memcpset.s                         0x00000000   Number         0  strncpy.o ABSOLUTE
    ../../memcpset.s                         0x00000000   Number         0  rt_memclr_w.o ABSOLUTE
    ../../memcpset.s                         0x00000000   Number         0  rt_memclr.o ABSOLUTE
    ../../memcpset.s                         0x00000000   Number         0  aeabi_memset.o ABSOLUTE
    ../../memcpset.s                         0x00000000   Number         0  rt_memcpy_v6.o ABSOLUTE
    ../../memcpset.s                         0x00000000   Number         0  rt_memcpy_w.o ABSOLUTE
    ../../memcpset.s                         0x00000000   Number         0  strcmpv7m.o ABSOLUTE
    ../../misc.s                             0x00000000   Number         0  printf_stubs.o ABSOLUTE
    ../../printf.c                           0x00000000   Number         0  _printf_hex_ll.o ABSOLUTE
    ../../printf.c                           0x00000000   Number         0  __printf_flags_ss_wp.o ABSOLUTE
    ../../printf.c                           0x00000000   Number         0  _printf_hex_int_ll_ptr.o ABSOLUTE
    ../../printf.c                           0x00000000   Number         0  __printf_flags.o ABSOLUTE
    ../../printf.c                           0x00000000   Number         0  __printf_ss.o ABSOLUTE
    ../../printf.c                           0x00000000   Number         0  _printf_hex_ptr.o ABSOLUTE
    ../../printf.c                           0x00000000   Number         0  __printf_flags_ss.o ABSOLUTE
    ../../printf.c                           0x00000000   Number         0  _printf_hex_int.o ABSOLUTE
    ../../printf.c                           0x00000000   Number         0  _printf_char.o ABSOLUTE
    ../../printf.c                           0x00000000   Number         0  _sputc.o ABSOLUTE
    ../../printf.c                           0x00000000   Number         0  _printf_char_common.o ABSOLUTE
    ../../printf.c                           0x00000000   Number         0  _printf_intcommon.o ABSOLUTE
    ../../printf.c                           0x00000000   Number         0  _printf_hex_int_ll.o ABSOLUTE
    ../../printf.c                           0x00000000   Number         0  __2sprintf.o ABSOLUTE
    ../../printf.c                           0x00000000   Number         0  noretval__2sprintf.o ABSOLUTE
    ../../printf.c                           0x00000000   Number         0  __printf_wp.o ABSOLUTE
    ../../printf.c                           0x00000000   Number         0  _printf_pad.o ABSOLUTE
    ../../printf.c                           0x00000000   Number         0  __printf.o ABSOLUTE
    ../../printf.c                           0x00000000   Number         0  _printf_str.o ABSOLUTE
    ../../printf.c                           0x00000000   Number         0  _printf_dec.o ABSOLUTE
    ../../printf.c                           0x00000000   Number         0  _printf_hex_int_ptr.o ABSOLUTE
    ../../printf.c                           0x00000000   Number         0  __printf_flags_wp.o ABSOLUTE
    ../../printf.c                           0x00000000   Number         0  __printf_ss_wp.o ABSOLUTE
    ../../printf.c                           0x00000000   Number         0  _printf_hex_ll_ptr.o ABSOLUTE
    ../../printf.c                           0x00000000   Number         0  __printf_nopercent.o ABSOLUTE
    ../../printf_percent.s                   0x00000000   Number         0  _printf_x.o ABSOLUTE
    ../../printf_percent.s                   0x00000000   Number         0  _printf_s.o ABSOLUTE
    ../../printf_percent.s                   0x00000000   Number         0  _printf_d.o ABSOLUTE
    ../../printf_percent.s                   0x00000000   Number         0  _printf_percent_end.o ABSOLUTE
    ../../printf_percent.s                   0x00000000   Number         0  _printf_percent.o ABSOLUTE
    ../../signal.c                           0x00000000   Number         0  defsig_pvfn_inner.o ABSOLUTE
    ../../signal.c                           0x00000000   Number         0  defsig_general.o ABSOLUTE
    ../../signal.c                           0x00000000   Number         0  __raise.o ABSOLUTE
    ../../signal.c                           0x00000000   Number         0  defsig_other.o ABSOLUTE
    ../../signal.c                           0x00000000   Number         0  defsig_segv_inner.o ABSOLUTE
    ../../signal.c                           0x00000000   Number         0  defsig_cppl_inner.o ABSOLUTE
    ../../signal.c                           0x00000000   Number         0  defsig_rtmem_outer.o ABSOLUTE
    ../../signal.c                           0x00000000   Number         0  defsig_rtmem_formal.o ABSOLUTE
    ../../signal.c                           0x00000000   Number         0  defsig_exit.o ABSOLUTE
    ../../signal.c                           0x00000000   Number         0  defsig_rtmem_inner.o ABSOLUTE
    ../../signal.c                           0x00000000   Number         0  defsig_stak_inner.o ABSOLUTE
    ../../signal.c                           0x00000000   Number         0  defsig_rtred_inner.o ABSOLUTE
    ../../signal.c                           0x00000000   Number         0  defsig_fpe_inner.o ABSOLUTE
    ../../signal.c                           0x00000000   Number         0  defsig_abrt_inner.o ABSOLUTE
    ../../signal.s                           0x00000000   Number         0  defsig.o ABSOLUTE
    ../../stdlib.c                           0x00000000   Number         0  exit.o ABSOLUTE
    ../../string.c                           0x00000000   Number         0  memcmp.o ABSOLUTE
    ../../string.c                           0x00000000   Number         0  strcat.o ABSOLUTE
    ../../string.c                           0x00000000   Number         0  strncmp.o ABSOLUTE
    ../../string.c                           0x00000000   Number         0  strlen.o ABSOLUTE
    ..\\src\\driver\\drv_CMIS\\core_cm3.c    0x00000000   Number         0  core_cm3.o ABSOLUTE
    ..\src\app\process\process_led.c         0x00000000   Number         0  process_led.o ABSOLUTE
    ..\src\app\process\process_ledscreen.c   0x00000000   Number         0  process_ledscreen.o ABSOLUTE
    ..\src\app\process\process_net.c         0x00000000   Number         0  process_net.o ABSOLUTE
    ..\src\app\usr\main.c                    0x00000000   Number         0  main.o ABSOLUTE
    ..\src\driver\drv_CMIS\core_cm3.c        0x00000000   Number         0  core_cm3.o ABSOLUTE
    ..\src\driver\drv_CMIS\startup_stm32f2xx.s 0x00000000   Number         0  startup_stm32f2xx.o ABSOLUTE
    ..\src\driver\drv_CMIS\system_stm32f2xx.c 0x00000000   Number         0  system_stm32f2xx.o ABSOLUTE
    ..\src\driver\drv_IAP\flash_if.c         0x00000000   Number         0  flash_if.o ABSOLUTE
    ..\src\driver\drv_IAP\tftp_cli.c         0x00000000   Number         0  tftp_cli.o ABSOLUTE
    ..\src\driver\drv_IAP\tftpserver.c       0x00000000   Number         0  tftpserver.o ABSOLUTE
    ..\src\driver\drv_STM32F2xx_StdPeriph\src\misc.c 0x00000000   Number         0  misc.o ABSOLUTE
    ..\src\driver\drv_STM32F2xx_StdPeriph\src\stm32f2xx_dbgmcu.c 0x00000000   Number         0  stm32f2xx_dbgmcu.o ABSOLUTE
    ..\src\driver\drv_STM32F2xx_StdPeriph\src\stm32f2xx_dma.c 0x00000000   Number         0  stm32f2xx_dma.o ABSOLUTE
    ..\src\driver\drv_STM32F2xx_StdPeriph\src\stm32f2xx_exti.c 0x00000000   Number         0  stm32f2xx_exti.o ABSOLUTE
    ..\src\driver\drv_STM32F2xx_StdPeriph\src\stm32f2xx_flash.c 0x00000000   Number         0  stm32f2xx_flash.o ABSOLUTE
    ..\src\driver\drv_STM32F2xx_StdPeriph\src\stm32f2xx_gpio.c 0x00000000   Number         0  stm32f2xx_gpio.o ABSOLUTE
    ..\src\driver\drv_STM32F2xx_StdPeriph\src\stm32f2xx_i2c.c 0x00000000   Number         0  stm32f2xx_i2c.o ABSOLUTE
    ..\src\driver\drv_STM32F2xx_StdPeriph\src\stm32f2xx_pwr.c 0x00000000   Number         0  stm32f2xx_pwr.o ABSOLUTE
    ..\src\driver\drv_STM32F2xx_StdPeriph\src\stm32f2xx_rcc.c 0x00000000   Number         0  stm32f2xx_rcc.o ABSOLUTE
    ..\src\driver\drv_STM32F2xx_StdPeriph\src\stm32f2xx_spi.c 0x00000000   Number         0  stm32f2xx_spi.o ABSOLUTE
    ..\src\driver\drv_STM32F2xx_StdPeriph\src\stm32f2xx_syscfg.c 0x00000000   Number         0  stm32f2xx_syscfg.o ABSOLUTE
    ..\src\driver\drv_STM32F2xx_StdPeriph\src\stm32f2xx_tim.c 0x00000000   Number         0  stm32f2xx_tim.o ABSOLUTE
    ..\src\driver\drv_STM32F2xx_StdPeriph\src\stm32f2xx_usart.c 0x00000000   Number         0  stm32f2xx_usart.o ABSOLUTE
    ..\src\driver\drv_bsp\MyApp.c            0x00000000   Number         0  myapp.o ABSOLUTE
    ..\src\driver\drv_bsp\MyAudio.c          0x00000000   Number         0  myaudio.o ABSOLUTE
    ..\src\driver\drv_bsp\MyAudioSample.c    0x00000000   Number         0  myaudiosample.o ABSOLUTE
    ..\src\driver\drv_bsp\MyBoard.c          0x00000000   Number         0  myboard.o ABSOLUTE
    ..\src\driver\drv_bsp\MyCommander.c      0x00000000   Number         0  mycommander.o ABSOLUTE
    ..\src\driver\drv_bsp\MyEthernet.c       0x00000000   Number         0  myethernet.o ABSOLUTE
    ..\src\driver\drv_bsp\MyFlash.c          0x00000000   Number         0  myflash.o ABSOLUTE
    ..\src\driver\drv_bsp\MyHttpd.c          0x00000000   Number         0  myhttpd.o ABSOLUTE
    ..\src\driver\drv_bsp\MyI2c.c            0x00000000   Number         0  myi2c.o ABSOLUTE
    ..\src\driver\drv_bsp\MyI2s.c            0x00000000   Number         0  myi2s.o ABSOLUTE
    ..\src\driver\drv_bsp\MyLwip.c           0x00000000   Number         0  mylwip.o ABSOLUTE
    ..\src\driver\drv_bsp\MyMiscFunc.c       0x00000000   Number         0  mymiscfunc.o ABSOLUTE
    ..\src\driver\drv_bsp\MyNet.c            0x00000000   Number         0  mynet.o ABSOLUTE
    ..\src\driver\drv_bsp\MyProtocol.c       0x00000000   Number         0  myprotocol.o ABSOLUTE
    ..\src\driver\drv_bsp\MyStorage.c        0x00000000   Number         0  mystorage.o ABSOLUTE
    ..\src\driver\drv_bsp\MySwitch.c         0x00000000   Number         0  myswitch.o ABSOLUTE
    ..\src\driver\drv_bsp\MyTimer.c          0x00000000   Number         0  mytimer.o ABSOLUTE
    ..\src\driver\drv_bsp\bsp_dev_id.c       0x00000000   Number         0  bsp_dev_id.o ABSOLUTE
    ..\src\driver\drv_bsp\hc595.c            0x00000000   Number         0  hc595.o ABSOLUTE
    ..\src\driver\drv_bsp\stm32f2xx_it.c     0x00000000   Number         0  stm32f2xx_it.o ABSOLUTE
    ..\src\driver\drv_ether\stm32f2x7_eth.c  0x00000000   Number         0  stm32f2x7_eth.o ABSOLUTE
    ..\src\driver\drv_lwip_v1.3.2\port\STM32F2x7\Standalone\ethernetif.c 0x00000000   Number         0  ethernetif.o ABSOLUTE
    ..\src\driver\drv_lwip_v1.3.2\src\api\api_lib.c 0x00000000   Number         0  api_lib.o ABSOLUTE
    ..\src\driver\drv_lwip_v1.3.2\src\api\api_msg.c 0x00000000   Number         0  api_msg.o ABSOLUTE
    ..\src\driver\drv_lwip_v1.3.2\src\api\err.c 0x00000000   Number         0  err.o ABSOLUTE
    ..\src\driver\drv_lwip_v1.3.2\src\api\netbuf.c 0x00000000   Number         0  netbuf.o ABSOLUTE
    ..\src\driver\drv_lwip_v1.3.2\src\api\netdb.c 0x00000000   Number         0  netdb.o ABSOLUTE
    ..\src\driver\drv_lwip_v1.3.2\src\api\netifapi.c 0x00000000   Number         0  netifapi.o ABSOLUTE
    ..\src\driver\drv_lwip_v1.3.2\src\api\sockets.c 0x00000000   Number         0  sockets.o ABSOLUTE
    ..\src\driver\drv_lwip_v1.3.2\src\api\tcpip.c 0x00000000   Number         0  tcpip.o ABSOLUTE
    ..\src\driver\drv_lwip_v1.3.2\src\core\dhcp.c 0x00000000   Number         0  dhcp.o ABSOLUTE
    ..\src\driver\drv_lwip_v1.3.2\src\core\init.c 0x00000000   Number         0  init.o ABSOLUTE
    ..\src\driver\drv_lwip_v1.3.2\src\core\ipv4\autoip.c 0x00000000   Number         0  autoip.o ABSOLUTE
    ..\src\driver\drv_lwip_v1.3.2\src\core\ipv4\icmp.c 0x00000000   Number         0  icmp.o ABSOLUTE
    ..\src\driver\drv_lwip_v1.3.2\src\core\ipv4\igmp.c 0x00000000   Number         0  igmp.o ABSOLUTE
    ..\src\driver\drv_lwip_v1.3.2\src\core\ipv4\inet.c 0x00000000   Number         0  inet.o ABSOLUTE
    ..\src\driver\drv_lwip_v1.3.2\src\core\ipv4\inet_chksum.c 0x00000000   Number         0  inet_chksum.o ABSOLUTE
    ..\src\driver\drv_lwip_v1.3.2\src\core\ipv4\ip.c 0x00000000   Number         0  ip.o ABSOLUTE
    ..\src\driver\drv_lwip_v1.3.2\src\core\ipv4\ip_addr.c 0x00000000   Number         0  ip_addr.o ABSOLUTE
    ..\src\driver\drv_lwip_v1.3.2\src\core\ipv4\ip_frag.c 0x00000000   Number         0  ip_frag.o ABSOLUTE
    ..\src\driver\drv_lwip_v1.3.2\src\core\mem.c 0x00000000   Number         0  mem.o ABSOLUTE
    ..\src\driver\drv_lwip_v1.3.2\src\core\memp.c 0x00000000   Number         0  memp.o ABSOLUTE
    ..\src\driver\drv_lwip_v1.3.2\src\core\netif.c 0x00000000   Number         0  netif.o ABSOLUTE
    ..\src\driver\drv_lwip_v1.3.2\src\core\pbuf.c 0x00000000   Number         0  pbuf.o ABSOLUTE
    ..\src\driver\drv_lwip_v1.3.2\src\core\raw.c 0x00000000   Number         0  raw.o ABSOLUTE
    ..\src\driver\drv_lwip_v1.3.2\src\core\stats.c 0x00000000   Number         0  stats.o ABSOLUTE
    ..\src\driver\drv_lwip_v1.3.2\src\core\sys.c 0x00000000   Number         0  sys.o ABSOLUTE
    ..\src\driver\drv_lwip_v1.3.2\src\core\tcp.c 0x00000000   Number         0  tcp.o ABSOLUTE
    ..\src\driver\drv_lwip_v1.3.2\src\core\tcp_in.c 0x00000000   Number         0  tcp_in.o ABSOLUTE
    ..\src\driver\drv_lwip_v1.3.2\src\core\tcp_out.c 0x00000000   Number         0  tcp_out.o ABSOLUTE
    ..\src\driver\drv_lwip_v1.3.2\src\core\udp.c 0x00000000   Number         0  udp.o ABSOLUTE
    ..\src\driver\drv_lwip_v1.3.2\src\netif\etharp.c 0x00000000   Number         0  etharp.o ABSOLUTE
    ..\src\driver\drv_lwip_v1.3.2\src\netif\loopif.c 0x00000000   Number         0  loopif.o ABSOLUTE
    ..\src\driver\drv_lwip_v1.3.2\src\netif\slipif.c 0x00000000   Number         0  slipif.o ABSOLUTE
    ..\src\porting_layer\mem_str.c           0x00000000   Number         0  mem_str.o ABSOLUTE
    ..\src\porting_layer\p_sys.c             0x00000000   Number         0  p_sys.o ABSOLUTE
    dc.s                                     0x00000000   Number         0  dc.o ABSOLUTE
    RESET                                    0x08020000   Section      388  startup_stm32f2xx.o(RESET)
    !!!main                                  0x08020184   Section        8  __main.o(!!!main)
    !!!scatter                               0x0802018c   Section       52  __scatter.o(!!!scatter)
    !!dczerorl2                              0x080201c0   Section       90  __dczerorl2.o(!!dczerorl2)
    !!handler_zi                             0x0802021c   Section       28  __scatter_zi.o(!!handler_zi)
    .ARM.Collect$$_printf_percent$$00000000  0x08020238   Section        0  _printf_percent.o(.ARM.Collect$$_printf_percent$$00000000)
    .ARM.Collect$$_printf_percent$$00000009  0x08020238   Section        6  _printf_d.o(.ARM.Collect$$_printf_percent$$00000009)
    .ARM.Collect$$_printf_percent$$0000000C  0x0802023e   Section        6  _printf_x.o(.ARM.Collect$$_printf_percent$$0000000C)
    .ARM.Collect$$_printf_percent$$00000014  0x08020244   Section        6  _printf_s.o(.ARM.Collect$$_printf_percent$$00000014)
    .ARM.Collect$$_printf_percent$$00000017  0x0802024a   Section        4  _printf_percent_end.o(.ARM.Collect$$_printf_percent$$00000017)
    .ARM.Collect$$libinit$$00000000          0x0802024e   Section        6  libinit.o(.ARM.Collect$$libinit$$00000000)
    .ARM.Collect$$libinit$$00000001          0x08020254   Section        8  libinit2.o(.ARM.Collect$$libinit$$00000001)
    .ARM.Collect$$libinit$$00000006          0x0802025c   Section        0  libinit2.o(.ARM.Collect$$libinit$$00000006)
    .ARM.Collect$$libinit$$00000008          0x0802025c   Section        0  libinit2.o(.ARM.Collect$$libinit$$00000008)
    .ARM.Collect$$libinit$$0000000A          0x0802025c   Section        0  libinit2.o(.ARM.Collect$$libinit$$0000000A)
    .ARM.Collect$$libinit$$0000000D          0x0802025c   Section        0  libinit2.o(.ARM.Collect$$libinit$$0000000D)
    .ARM.Collect$$libinit$$0000000F          0x0802025c   Section        0  libinit2.o(.ARM.Collect$$libinit$$0000000F)
    .ARM.Collect$$libinit$$00000011          0x0802025c   Section        0  libinit2.o(.ARM.Collect$$libinit$$00000011)
    .ARM.Collect$$libinit$$00000013          0x0802025c   Section        0  libinit2.o(.ARM.Collect$$libinit$$00000013)
    .ARM.Collect$$libinit$$00000015          0x0802025c   Section        0  libinit2.o(.ARM.Collect$$libinit$$00000015)
    .ARM.Collect$$libinit$$00000017          0x0802025c   Section        0  libinit2.o(.ARM.Collect$$libinit$$00000017)
    .ARM.Collect$$libinit$$00000019          0x0802025c   Section        0  libinit2.o(.ARM.Collect$$libinit$$00000019)
    .ARM.Collect$$libinit$$0000001B          0x0802025c   Section        0  libinit2.o(.ARM.Collect$$libinit$$0000001B)
    .ARM.Collect$$libinit$$0000001D          0x0802025c   Section        0  libinit2.o(.ARM.Collect$$libinit$$0000001D)
    .ARM.Collect$$libinit$$0000001F          0x0802025c   Section        0  libinit2.o(.ARM.Collect$$libinit$$0000001F)
    .ARM.Collect$$libinit$$00000021          0x0802025c   Section        0  libinit2.o(.ARM.Collect$$libinit$$00000021)
    .ARM.Collect$$libinit$$00000028          0x0802025c   Section        0  libinit2.o(.ARM.Collect$$libinit$$00000028)
    .ARM.Collect$$libinit$$0000002A          0x0802025c   Section        0  libinit2.o(.ARM.Collect$$libinit$$0000002A)
    .ARM.Collect$$libinit$$0000002C          0x0802025c   Section        0  libinit2.o(.ARM.Collect$$libinit$$0000002C)
    .ARM.Collect$$libinit$$0000002E          0x0802025c   Section        0  libinit2.o(.ARM.Collect$$libinit$$0000002E)
    .ARM.Collect$$libinit$$0000002F          0x0802025c   Section        2  libinit2.o(.ARM.Collect$$libinit$$0000002F)
    .ARM.Collect$$libshutdown$$00000000      0x0802025e   Section        2  libshutdown.o(.ARM.Collect$$libshutdown$$00000000)
    .ARM.Collect$$libshutdown$$00000003      0x08020260   Section        0  libshutdown2.o(.ARM.Collect$$libshutdown$$00000003)
    .ARM.Collect$$libshutdown$$00000006      0x08020260   Section        0  libshutdown2.o(.ARM.Collect$$libshutdown$$00000006)
    .ARM.Collect$$libshutdown$$00000009      0x08020260   Section        0  libshutdown2.o(.ARM.Collect$$libshutdown$$00000009)
    .ARM.Collect$$libshutdown$$0000000B      0x08020260   Section        0  libshutdown2.o(.ARM.Collect$$libshutdown$$0000000B)
    .ARM.Collect$$libshutdown$$0000000E      0x08020260   Section        0  libshutdown2.o(.ARM.Collect$$libshutdown$$0000000E)
    .ARM.Collect$$libshutdown$$0000000F      0x08020260   Section        2  libshutdown2.o(.ARM.Collect$$libshutdown$$0000000F)
    .ARM.Collect$$rtentry$$00000000          0x08020262   Section        0  rtentry.o(.ARM.Collect$$rtentry$$00000000)
    .ARM.Collect$$rtentry$$00000002          0x08020262   Section        0  rtentry2.o(.ARM.Collect$$rtentry$$00000002)
    .ARM.Collect$$rtentry$$00000004          0x08020262   Section        6  rtentry4.o(.ARM.Collect$$rtentry$$00000004)
    .ARM.Collect$$rtentry$$00000009          0x08020268   Section        0  rtentry2.o(.ARM.Collect$$rtentry$$00000009)
    .ARM.Collect$$rtentry$$0000000A          0x08020268   Section        4  rtentry2.o(.ARM.Collect$$rtentry$$0000000A)
    .ARM.Collect$$rtentry$$0000000C          0x0802026c   Section        0  rtentry2.o(.ARM.Collect$$rtentry$$0000000C)
    .ARM.Collect$$rtentry$$0000000D          0x0802026c   Section        8  rtentry2.o(.ARM.Collect$$rtentry$$0000000D)
    .ARM.Collect$$rtexit$$00000000           0x08020274   Section        2  rtexit.o(.ARM.Collect$$rtexit$$00000000)
    .ARM.Collect$$rtexit$$00000002           0x08020276   Section        0  rtexit2.o(.ARM.Collect$$rtexit$$00000002)
    .ARM.Collect$$rtexit$$00000003           0x08020276   Section        4  rtexit2.o(.ARM.Collect$$rtexit$$00000003)
    .ARM.Collect$$rtexit$$00000004           0x0802027a   Section        6  rtexit2.o(.ARM.Collect$$rtexit$$00000004)
    .emb_text                                0x08020280   Section       32  core_cm3.o(.emb_text)
    .emb_text                                0x080202a0   Section        0  maybetermalloc1.o(.emb_text)
    .text                                    0x080202a0   Section        0  main.o(.text)
    .text                                    0x08020428   Section        0  mem_str.o(.text)
    .text                                    0x08020468   Section        0  p_sys.o(.text)
    .text                                    0x08020588   Section        0  hc595.o(.text)
    .text                                    0x08020820   Section        0  myapp.o(.text)
    .text                                    0x080208dc   Section        0  myaudio.o(.text)
    .text                                    0x08020b34   Section        0  myboard.o(.text)
    .text                                    0x08020f20   Section        0  mycommander.o(.text)
    .text                                    0x08021400   Section        0  myethernet.o(.text)
    .text                                    0x08021578   Section        0  myhttpd.o(.text)
    http_state_alloc                         0x08021579   Thumb Code    26  myhttpd.o(.text)
    http_state_free                          0x08021593   Thumb Code    12  myhttpd.o(.text)
    http_err                                 0x0802159f   Thumb Code    18  myhttpd.o(.text)
    http_close_conn                          0x080215b1   Thumb Code    54  myhttpd.o(.text)
    http_send_data                           0x080215e7   Thumb Code    62  myhttpd.o(.text)
    http_sent                                0x08021625   Thumb Code    38  myhttpd.o(.text)
    http_poll                                0x0802164b   Thumb Code    28  myhttpd.o(.text)
    HttpRecv                                 0x08021863   Thumb Code  1472  myhttpd.o(.text)
    HttpAccept                               0x08021e23   Thumb Code    80  myhttpd.o(.text)
    .text                                    0x08021f64   Section        0  myi2c.o(.text)
    .text                                    0x08022340   Section        0  myi2s.o(.text)
    .text                                    0x08022964   Section        0  mylwip.o(.text)
    .text                                    0x08022ed0   Section        0  mymiscfunc.o(.text)
    .text                                    0x0802325c   Section        0  mynet.o(.text)
    .text                                    0x08023660   Section        0  myprotocol.o(.text)
    .text                                    0x08023954   Section        0  mystorage.o(.text)
    .text                                    0x08023b8c   Section        0  mytimer.o(.text)
    .text                                    0x08023cbc   Section        0  stm32f2xx_it.o(.text)
    .text                                    0x08023cec   Section        0  bsp_dev_id.o(.text)
    .text                                    0x08023e00   Section       64  startup_stm32f2xx.o(.text)
    .text                                    0x08023e40   Section        0  system_stm32f2xx.o(.text)
    SetSysClock                              0x08023e41   Thumb Code   170  system_stm32f2xx.o(.text)
    .text                                    0x08024018   Section        0  stm32f2x7_eth.o(.text)
    ETH_Delay                                0x08024019   Thumb Code    18  stm32f2x7_eth.o(.text)
    .text                                    0x08024eb4   Section        0  mem.o(.text)
    plug_holes                               0x08024eb5   Thumb Code   132  mem.o(.text)
    .text                                    0x0802522c   Section        0  memp.o(.text)
    .text                                    0x080252e0   Section        0  netif.o(.text)
    .text                                    0x080254f4   Section        0  pbuf.o(.text)
    .text                                    0x08025ae0   Section        0  raw.o(.text)
    .text                                    0x08025c90   Section        0  tcp.o(.text)
    tcp_new_port                             0x080263a7   Thumb Code   104  tcp.o(.text)
    tcp_accept_null                          0x080264f3   Thumb Code     8  tcp.o(.text)
    tcp_kill_prio                            0x0802673d   Thumb Code    82  tcp.o(.text)
    tcp_kill_timewait                        0x0802678f   Thumb Code    56  tcp.o(.text)
    .text                                    0x080268f0   Section        0  tcp_in.o(.text)
    tcp_receive                              0x080268f1   Thumb Code  1636  tcp_in.o(.text)
    tcp_parseopt                             0x08026f55   Thumb Code   192  tcp_in.o(.text)
    tcp_process                              0x08027015   Thumb Code  1462  tcp_in.o(.text)
    tcp_listen_input                         0x080275cb   Thumb Code   280  tcp_in.o(.text)
    tcp_timewait_input                       0x080276e3   Thumb Code   150  tcp_in.o(.text)
    .text                                    0x08027c10   Section        0  tcp_out.o(.text)
    tcp_output_set_header                    0x08027c11   Thumb Code   142  tcp_out.o(.text)
    tcp_output_segment                       0x08028181   Thumb Code   202  tcp_out.o(.text)
    .text                                    0x08028724   Section        0  udp.o(.text)
    .text                                    0x08028b20   Section        0  autoip.o(.text)
    autoip_start_probing                     0x08028b23   Thumb Code   100  autoip.o(.text)
    autoip_create_addr                       0x08028b87   Thumb Code    92  autoip.o(.text)
    autoip_arp_announce                      0x08028c4d   Thumb Code    38  autoip.o(.text)
    autoip_handle_arp_conflict               0x08028c73   Thumb Code    50  autoip.o(.text)
    autoip_arp_probe                         0x08028ca5   Thumb Code    40  autoip.o(.text)
    autoip_bind                              0x08028ccd   Thumb Code    56  autoip.o(.text)
    .text                                    0x08028f44   Section        0  icmp.o(.text)
    icmp_send_response                       0x080290c1   Thumb Code   120  icmp.o(.text)
    .text                                    0x08029160   Section        0  inet.o(.text)
    .text                                    0x080293ac   Section        0  inet_chksum.o(.text)
    lwip_standard_chksum                     0x080293ad   Thumb Code    88  inet_chksum.o(.text)
    .text                                    0x0802951c   Section        0  ip.o(.text)
    .text                                    0x08029834   Section        0  ip_addr.o(.text)
    .text                                    0x08029884   Section        0  ip_frag.o(.text)
    ip_reass_dequeue_datagram                0x08029885   Thumb Code    40  ip_frag.o(.text)
    ip_reass_free_complete_datagram          0x080298ad   Thumb Code   134  ip_frag.o(.text)
    ip_reass_remove_oldest_datagram          0x08029967   Thumb Code   122  ip_frag.o(.text)
    ip_reass_enqueue_new_datagram            0x080299e1   Thumb Code    86  ip_frag.o(.text)
    ip_reass_chain_frag_into_datagram_and_validate 0x08029a37   Thumb Code   364  ip_frag.o(.text)
    .text                                    0x08029eac   Section        0  etharp.o(.text)
    free_etharp_q                            0x08029ead   Thumb Code    42  etharp.o(.text)
    find_entry                               0x08029f7b   Thumb Code   494  etharp.o(.text)
    etharp_send_ip                           0x0802a169   Thumb Code    72  etharp.o(.text)
    update_arp_entry                         0x0802a1b1   Thumb Code   244  etharp.o(.text)
    .text                                    0x0802a87c   Section        0  ethernetif.o(.text)
    low_level_init                           0x0802a87d   Thumb Code   152  ethernetif.o(.text)
    low_level_output                         0x0802a915   Thumb Code    54  ethernetif.o(.text)
    low_level_input                          0x0802a94b   Thumb Code   172  ethernetif.o(.text)
    .text                                    0x0802aa78   Section        0  misc.o(.text)
    .text                                    0x0802ab80   Section        0  stm32f2xx_dma.o(.text)
    .text                                    0x0802af58   Section        0  stm32f2xx_flash.o(.text)
    .text                                    0x0802b424   Section        0  stm32f2xx_gpio.o(.text)
    .text                                    0x0802b6d4   Section        0  stm32f2xx_i2c.o(.text)
    .text                                    0x0802bb60   Section        0  stm32f2xx_rcc.o(.text)
    .text                                    0x0802c130   Section        0  stm32f2xx_spi.o(.text)
    .text                                    0x0802c50c   Section        0  stm32f2xx_syscfg.o(.text)
    .text                                    0x0802c5b8   Section        0  process_net.o(.text)
    NVIC_SystemReset                         0x0802d2fd   Thumb Code    30  process_net.o(.text)
    .text                                    0x0802d32c   Section        0  process_ledscreen.o(.text)
    .text                                    0x0802dec8   Section        0  flash_if.o(.text)
    GetSector                                0x0802dec9   Thumb Code   220  flash_if.o(.text)
    .text                                    0x0802e3ac   Section        0  tftp_cli.o(.text)
    tftp_recv_callback                       0x0802e607   Thumb Code   358  tftp_cli.o(.text)
    .text                                    0x0802e920   Section        0  h1_alloc.o(.text)
    .text                                    0x0802e97e   Section        0  h1_free.o(.text)
    .text                                    0x0802e9cc   Section        0  noretval__2sprintf.o(.text)
    .text                                    0x0802e9f4   Section        0  _printf_pad.o(.text)
    .text                                    0x0802ea46   Section        0  _printf_str.o(.text)
    .text                                    0x0802ea98   Section        0  _printf_dec.o(.text)
    .text                                    0x0802eb10   Section        0  _printf_hex_int.o(.text)
    .text                                    0x0802eb6c   Section        0  __printf_flags_wp.o(.text)
    .text                                    0x0802eca8   Section        0  memcmp.o(.text)
    .text                                    0x0802ed00   Section        0  strlen.o(.text)
    .text                                    0x0802ed3e   Section        0  strncmp.o(.text)
    .text                                    0x0802edd4   Section        0  strcat.o(.text)
    .text                                    0x0802edec   Section      138  rt_memcpy_v6.o(.text)
    .text                                    0x0802ee76   Section      100  rt_memcpy_w.o(.text)
    .text                                    0x0802eeda   Section       16  aeabi_memset.o(.text)
    .text                                    0x0802eeea   Section       68  rt_memclr.o(.text)
    .text                                    0x0802ef2e   Section       78  rt_memclr_w.o(.text)
    .text                                    0x0802ef7c   Section      128  strcmpv7m.o(.text)
    .text                                    0x0802effc   Section        0  heapauxi.o(.text)
    .text                                    0x0802f004   Section        8  rt_heap_descriptor_intlibspace.o(.text)
    .text                                    0x0802f00c   Section        0  hguard.o(.text)
    .text                                    0x0802f010   Section        0  init_alloc.o(.text)
    .text                                    0x0802f09a   Section        0  h1_init.o(.text)
    .text                                    0x0802f0a8   Section        0  _printf_intcommon.o(.text)
    .text                                    0x0802f160   Section        0  _printf_char_common.o(.text)
    _printf_input_char                       0x0802f161   Thumb Code    10  _printf_char_common.o(.text)
    .text                                    0x0802f190   Section        0  _sputc.o(.text)
    .text                                    0x0802f19a   Section        0  _printf_char.o(.text)
    .text                                    0x0802f1c8   Section        8  libspace.o(.text)
    .text                                    0x0802f1d0   Section        0  h1_extend.o(.text)
    .text                                    0x0802f204   Section        0  defsig_rtmem_outer.o(.text)
    .text                                    0x0802f212   Section        2  use_no_semi.o(.text)
    .text                                    0x0802f214   Section        0  indicate_semi.o(.text)
    .text                                    0x0802f214   Section       74  sys_stackheap_outer.o(.text)
    .text                                    0x0802f25e   Section        0  exit.o(.text)
    .text                                    0x0802f26a   Section        0  defsig_exit.o(.text)
    .text                                    0x0802f274   Section        0  defsig_rtmem_inner.o(.text)
    .text                                    0x0802f2c4   Section        0  sys_exit.o(.text)
    .text                                    0x0802f2d0   Section        0  defsig_general.o(.text)
    .text                                    0x0802f302   Section        0  sys_wrch.o(.text)
    .text                                    0x0802f310   Section        8  rt_fp_status_addr_intlibspace.o(.text)
    i._is_digit                              0x0802f318   Section        0  __printf_wp.o(i._is_digit)
    x$fpl$fpinit                             0x0802f326   Section       14  fpinit.o(x$fpl$fpinit)
    .constdata                               0x0802f334   Section       34  hc595.o(.constdata)
    .constdata                               0x0802f358   Section      592  mycommander.o(.constdata)
    .constdata                               0x0802f5a8   Section     3790  myhttpd.o(.constdata)
    .constdata                               0x08030476   Section       36  memp.o(.constdata)
    memp_sizes                               0x08030476   Data          18  memp.o(.constdata)
    memp_num                                 0x08030488   Data          18  memp.o(.constdata)
    .constdata                               0x0803049a   Section       20  tcp.o(.constdata)
    .constdata                               0x080304ae   Section        8  ip_addr.o(.constdata)
    .constdata                               0x080304b6   Section       12  etharp.o(.constdata)
    .constdata                               0x080304c4   Section      224  process_net.o(.constdata)
    .constdata                               0x080305a4   Section     2362  process_ledscreen.o(.constdata)
    .constdata                               0x08030ede   Section       40  _printf_hex_int.o(.constdata)
    uc_hextab                                0x08030ede   Data          20  _printf_hex_int.o(.constdata)
    lc_hextab                                0x08030ef2   Data          20  _printf_hex_int.o(.constdata)
    .constdata                               0x08030f06   Section       17  __printf_flags_wp.o(.constdata)
    maptable                                 0x08030f06   Data          17  __printf_flags_wp.o(.constdata)
    .conststring                             0x08030f17   Section      298  myhttpd.o(.conststring)
    .conststring                             0x08031041   Section      104  tcp.o(.conststring)
    .conststring                             0x080310a9   Section      153  tftp_cli.o(.conststring)
    .conststrlit                             0x08031142   Section       56  myhttpd.o(.conststrlit)
    .data                                    0x20000000   Section       23  main.o(.data)
    timer_1                                  0x20000004   Data           4  main.o(.data)
    timer_2                                  0x20000008   Data           4  main.o(.data)
    timer_3                                  0x2000000c   Data           4  main.o(.data)
    .data                                    0x20000018   Section       10  p_sys.o(.data)
    timer0_ms                                0x20000018   Data           2  p_sys.o(.data)
    timer0_clock                             0x2000001c   Data           4  p_sys.o(.data)
    tmp                                      0x20000020   Data           1  p_sys.o(.data)
    tmp2                                     0x20000021   Data           1  p_sys.o(.data)
    .data                                    0x20000022   Section        7  hc595.o(.data)
    line_No                                  0x20000028   Data           1  hc595.o(.data)
    .data                                    0x2000002c   Section       12  myapp.o(.data)
    .data                                    0x20000038   Section      108  myaudio.o(.data)
    .data                                    0x200000a4   Section        5  myethernet.o(.data)
    .data                                    0x200000ac   Section      298  myhttpd.o(.data)
    timer_1                                  0x200001d0   Data           4  myhttpd.o(.data)
    iap_req                                  0x200001d4   Data           1  myhttpd.o(.data)
    flag                                     0x200001d5   Data           1  myhttpd.o(.data)
    .data                                    0x200001d8   Section        4  myi2s.o(.data)
    .data                                    0x200001dc   Section       52  mylwip.o(.data)
    arptimer                                 0x200001dc   Data           4  mylwip.o(.data)
    .data                                    0x20000210   Section       48  mynet.o(.data)
    .data                                    0x20000240   Section       20  myprotocol.o(.data)
    pack_index                               0x20000240   Data           4  myprotocol.o(.data)
    .data                                    0x20000254   Section        4  mystorage.o(.data)
    .data                                    0x20000258   Section       28  mytimer.o(.data)
    .data                                    0x20000274   Section       20  system_stm32f2xx.o(.data)
    .data                                    0x20000288   Section       16  stm32f2x7_eth.o(.data)
    .data                                    0x20000298   Section       13  mem.o(.data)
    ram                                      0x20000298   Data           4  mem.o(.data)
    ram_end                                  0x2000029c   Data           4  mem.o(.data)
    lfree                                    0x200002a0   Data           4  mem.o(.data)
    mem_sem                                  0x200002a4   Data           1  mem.o(.data)
    .data                                    0x200002a8   Section       12  netif.o(.data)
    netifnum                                 0x200002a8   Data           1  netif.o(.data)
    .data                                    0x200002b4   Section        4  raw.o(.data)
    raw_pcbs                                 0x200002b4   Data           4  raw.o(.data)
    .data                                    0x200002b8   Section       77  tcp.o(.data)
    port                                     0x200002e4   Data           2  tcp.o(.data)
    iss                                      0x200002e8   Data           4  tcp.o(.data)
    tcp_timer                                0x20000304   Data           1  tcp.o(.data)
    .data                                    0x20000308   Section       32  tcp_in.o(.data)
    tcphdr                                   0x20000308   Data           4  tcp_in.o(.data)
    iphdr                                    0x2000030c   Data           4  tcp_in.o(.data)
    seqno                                    0x20000310   Data           4  tcp_in.o(.data)
    ackno                                    0x20000314   Data           4  tcp_in.o(.data)
    flags                                    0x20000318   Data           1  tcp_in.o(.data)
    tcplen                                   0x2000031a   Data           2  tcp_in.o(.data)
    recv_flags                               0x2000031c   Data           1  tcp_in.o(.data)
    recv_data                                0x20000320   Data           4  tcp_in.o(.data)
    .data                                    0x20000328   Section        4  udp.o(.data)
    .data                                    0x2000032c   Section       12  ip.o(.data)
    ip_id                                    0x2000032c   Data           2  ip.o(.data)
    .data                                    0x20000338   Section        6  ip_frag.o(.data)
    reassdatagrams                           0x20000338   Data           4  ip_frag.o(.data)
    ip_reass_pbufcount                       0x2000033c   Data           2  ip_frag.o(.data)
    .data                                    0x2000033e   Section        1  etharp.o(.data)
    etharp_cached_entry                      0x2000033e   Data           1  etharp.o(.data)
    .data                                    0x2000033f   Section       16  stm32f2xx_rcc.o(.data)
    APBAHBPrescTable                         0x2000033f   Data          16  stm32f2xx_rcc.o(.data)
    .data                                    0x20000350   Section       12  process_net.o(.data)
    .data                                    0x2000035c   Section      187  process_ledscreen.o(.data)
    flag_tmp                                 0x20000412   Data           1  process_ledscreen.o(.data)
    col                                      0x20000414   Data           2  process_ledscreen.o(.data)
    tmp                                      0x20000416   Data           1  process_ledscreen.o(.data)
    .data                                    0x20000418   Section       12  flash_if.o(.data)
    .data                                    0x20000424   Section       60  tftp_cli.o(.data)
    UDPpcb_tftp                              0x20000424   Data           4  tftp_cli.o(.data)
    total_count                              0x20000428   Data           4  tftp_cli.o(.data)
    tftp_cli_timeout_cnt                     0x2000044c   Data           2  tftp_cli.o(.data)
    timer_1                                  0x20000450   Data           4  tftp_cli.o(.data)
    pcb_tmp                                  0x20000454   Data           4  tftp_cli.o(.data)
    flag                                     0x20000458   Data           1  tftp_cli.o(.data)
    Flash_Write_Address                      0x2000045c   Data           4  tftp_cli.o(.data)
    .bss                                     0x20000460   Section      864  hc595.o(.bss)
    .bss                                     0x200007c0   Section     8192  myaudio.o(.bss)
    .bss                                     0x200027c0   Section      256  mycommander.o(.bss)
    .bss                                     0x200028c0   Section     2048  myhttpd.o(.bss)
    .bss                                     0x200030c0   Section     8192  myi2s.o(.bss)
    .bss                                     0x200050c0   Section       52  mylwip.o(.bss)
    .bss                                     0x200050f4   Section     1280  mynet.o(.bss)
    .bss                                     0x200055f4   Section       24  mystorage.o(.bss)
    .bss                                     0x2000560c   Section    15572  stm32f2x7_eth.o(.bss)
    .bss                                     0x200092e0   Section    10260  mem.o(.bss)
    ram_heap                                 0x200092e0   Data       10260  mem.o(.bss)
    .bss                                     0x2000baf4   Section    26695  memp.o(.bss)
    memp_tab                                 0x2000baf4   Data          36  memp.o(.bss)
    memp_memory                              0x2000bb18   Data       26659  memp.o(.bss)
    .bss                                     0x2001233c   Section       20  tcp_in.o(.bss)
    inseg                                    0x2001233c   Data          20  tcp_in.o(.bss)
    .bss                                     0x20012350   Section       16  inet.o(.bss)
    str                                      0x20012350   Data          16  inet.o(.bss)
    .bss                                     0x20012360   Section     1504  ip_frag.o(.bss)
    buf                                      0x20012360   Data        1504  ip_frag.o(.bss)
    .bss                                     0x20012940   Section      200  etharp.o(.bss)
    arp_table                                0x20012940   Data         200  etharp.o(.bss)
    .bss                                     0x20012a08   Section     4244  process_net.o(.bss)
    .bss                                     0x20013a9c   Section    12998  process_ledscreen.o(.bss)
    mode_tmp                                 0x20013a9c   Data          12  process_ledscreen.o(.bss)
    .bss                                     0x20016d64   Section      544  tftp_cli.o(.bss)
    .bss                                     0x20016f84   Section       96  libspace.o(.bss)
    HEAP                                     0x20016fe8   Section     2048  startup_stm32f2xx.o(HEAP)
    Heap_Mem                                 0x20016fe8   Data        2048  startup_stm32f2xx.o(HEAP)
    STACK                                    0x200177e8   Section     4096  startup_stm32f2xx.o(STACK)
    Stack_Mem                                0x200177e8   Data        4096  startup_stm32f2xx.o(STACK)
    __initial_sp                             0x200187e8   Data           0  startup_stm32f2xx.o(STACK)

    Global Symbols

    Symbol Name                              Value     Ov Type        Size  Object(Section)

    BuildAttributes$$THM_ISAv4$P$D$K$B$S$PE$A:L22UL41UL21$X:L11$S22US41US21$IEEE1$IW$USESV6$~STKCKD$USESV7$~SHL$OTIME$ROPI$EBA8$UX$STANDARDLIB$REQ8$PRES8$EABIv2 0x00000000   Number         0  anon$$obj.o ABSOLUTE
    __ARM_use_no_argv                        0x00000000   Number         0  main.o ABSOLUTE
    _printf_flags                            0x00000000   Number         0  printf_stubs.o ABSOLUTE
    _printf_return_value                     0x00000000   Number         0  printf_stubs.o ABSOLUTE
    _printf_sizespec                         0x00000000   Number         0  printf_stubs.o ABSOLUTE
    _printf_widthprec                        0x00000000   Number         0  printf_stubs.o ABSOLUTE
    __ARM_exceptions_init                     - Undefined Weak Reference
    __alloca_initialize                       - Undefined Weak Reference
    __cpp_initialize__aeabi_                  - Undefined Weak Reference
    __cxa_finalize                            - Undefined Weak Reference
    __rt_locale                               - Undefined Weak Reference
    __sigvec_lookup                           - Undefined Weak Reference
    __user_heap_extent                        - Undefined Weak Reference
    _atexit_init                              - Undefined Weak Reference
    _call_atexit_fns                          - Undefined Weak Reference
    _clock_init                               - Undefined Weak Reference
    _fp_trap_init                             - Undefined Weak Reference
    _fp_trap_shutdown                         - Undefined Weak Reference
    _get_lc_collate                           - Undefined Weak Reference
    _get_lc_ctype                             - Undefined Weak Reference
    _get_lc_monetary                          - Undefined Weak Reference
    _get_lc_numeric                           - Undefined Weak Reference
    _get_lc_time                              - Undefined Weak Reference
    _getenv_init                              - Undefined Weak Reference
    _handle_redirection                       - Undefined Weak Reference
    _initio                                   - Undefined Weak Reference
    _mutex_acquire                            - Undefined Weak Reference
    _mutex_free                               - Undefined Weak Reference
    _mutex_release                            - Undefined Weak Reference
    _printf_mbtowc                            - Undefined Weak Reference
    _printf_truncate_signed                   - Undefined Weak Reference
    _printf_truncate_unsigned                 - Undefined Weak Reference
    _rand_init                                - Undefined Weak Reference
    _signal_finish                            - Undefined Weak Reference
    _signal_init                              - Undefined Weak Reference
    _terminateio                              - Undefined Weak Reference
    __Vectors_Size                           0x00000184   Number         0  startup_stm32f2xx.o ABSOLUTE
    __Vectors                                0x08020000   Data           4  startup_stm32f2xx.o(RESET)
    __Vectors_End                            0x08020184   Data           0  startup_stm32f2xx.o(RESET)
    __main                                   0x08020185   Thumb Code     8  __main.o(!!!main)
    __scatterload                            0x0802018d   Thumb Code     0  __scatter.o(!!!scatter)
    __scatterload_rt2                        0x0802018d   Thumb Code    44  __scatter.o(!!!scatter)
    __scatterload_rt2_thumb_only             0x0802018d   Thumb Code     0  __scatter.o(!!!scatter)
    __scatterload_null                       0x0802019b   Thumb Code     0  __scatter.o(!!!scatter)
    __decompress                             0x080201c1   Thumb Code    90  __dczerorl2.o(!!dczerorl2)
    __decompress1                            0x080201c1   Thumb Code     0  __dczerorl2.o(!!dczerorl2)
    __scatterload_zeroinit                   0x0802021d   Thumb Code    28  __scatter_zi.o(!!handler_zi)
    _printf_d                                0x08020239   Thumb Code     0  _printf_d.o(.ARM.Collect$$_printf_percent$$00000009)
    _printf_percent                          0x08020239   Thumb Code     0  _printf_percent.o(.ARM.Collect$$_printf_percent$$00000000)
    _printf_x                                0x0802023f   Thumb Code     0  _printf_x.o(.ARM.Collect$$_printf_percent$$0000000C)
    _printf_s                                0x08020245   Thumb Code     0  _printf_s.o(.ARM.Collect$$_printf_percent$$00000014)
    _printf_percent_end                      0x0802024b   Thumb Code     0  _printf_percent_end.o(.ARM.Collect$$_printf_percent$$00000017)
    __rt_lib_init                            0x0802024f   Thumb Code     0  libinit.o(.ARM.Collect$$libinit$$00000000)
    __rt_lib_init_heap_2                     0x08020255   Thumb Code     0  libinit2.o(.ARM.Collect$$libinit$$00000001)
    __rt_lib_init_alloca_1                   0x0802025d   Thumb Code     0  libinit2.o(.ARM.Collect$$libinit$$0000002A)
    __rt_lib_init_argv_1                     0x0802025d   Thumb Code     0  libinit2.o(.ARM.Collect$$libinit$$00000028)
    __rt_lib_init_atexit_1                   0x0802025d   Thumb Code     0  libinit2.o(.ARM.Collect$$libinit$$00000017)
    __rt_lib_init_clock_1                    0x0802025d   Thumb Code     0  libinit2.o(.ARM.Collect$$libinit$$0000001D)
    __rt_lib_init_cpp_1                      0x0802025d   Thumb Code     0  libinit2.o(.ARM.Collect$$libinit$$0000002E)
    __rt_lib_init_exceptions_1               0x0802025d   Thumb Code     0  libinit2.o(.ARM.Collect$$libinit$$0000002C)
    __rt_lib_init_fp_trap_1                  0x0802025d   Thumb Code     0  libinit2.o(.ARM.Collect$$libinit$$0000001B)
    __rt_lib_init_getenv_1                   0x0802025d   Thumb Code     0  libinit2.o(.ARM.Collect$$libinit$$0000001F)
    __rt_lib_init_heap_1                     0x0802025d   Thumb Code     0  libinit2.o(.ARM.Collect$$libinit$$00000006)
    __rt_lib_init_lc_collate_1               0x0802025d   Thumb Code     0  libinit2.o(.ARM.Collect$$libinit$$0000000D)
    __rt_lib_init_lc_ctype_1                 0x0802025d   Thumb Code     0  libinit2.o(.ARM.Collect$$libinit$$0000000F)
    __rt_lib_init_lc_monetary_1              0x0802025d   Thumb Code     0  libinit2.o(.ARM.Collect$$libinit$$00000011)
    __rt_lib_init_lc_numeric_1               0x0802025d   Thumb Code     0  libinit2.o(.ARM.Collect$$libinit$$00000013)
    __rt_lib_init_lc_time_1                  0x0802025d   Thumb Code     0  libinit2.o(.ARM.Collect$$libinit$$00000015)
    __rt_lib_init_rand_1                     0x0802025d   Thumb Code     0  libinit2.o(.ARM.Collect$$libinit$$0000000A)
    __rt_lib_init_return                     0x0802025d   Thumb Code     0  libinit2.o(.ARM.Collect$$libinit$$0000002F)
    __rt_lib_init_signal_1                   0x0802025d   Thumb Code     0  libinit2.o(.ARM.Collect$$libinit$$00000019)
    __rt_lib_init_stdio_1                    0x0802025d   Thumb Code     0  libinit2.o(.ARM.Collect$$libinit$$00000021)
    __rt_lib_init_user_alloc_1               0x0802025d   Thumb Code     0  libinit2.o(.ARM.Collect$$libinit$$00000008)
    __rt_lib_shutdown                        0x0802025f   Thumb Code     0  libshutdown.o(.ARM.Collect$$libshutdown$$00000000)
    __rt_lib_shutdown_fp_trap_1              0x08020261   Thumb Code     0  libshutdown2.o(.ARM.Collect$$libshutdown$$00000006)
    __rt_lib_shutdown_heap_1                 0x08020261   Thumb Code     0  libshutdown2.o(.ARM.Collect$$libshutdown$$0000000E)
    __rt_lib_shutdown_return                 0x08020261   Thumb Code     0  libshutdown2.o(.ARM.Collect$$libshutdown$$0000000F)
    __rt_lib_shutdown_signal_1               0x08020261   Thumb Code     0  libshutdown2.o(.ARM.Collect$$libshutdown$$00000009)
    __rt_lib_shutdown_stdio_1                0x08020261   Thumb Code     0  libshutdown2.o(.ARM.Collect$$libshutdown$$00000003)
    __rt_lib_shutdown_user_alloc_1           0x08020261   Thumb Code     0  libshutdown2.o(.ARM.Collect$$libshutdown$$0000000B)
    __rt_entry                               0x08020263   Thumb Code     0  rtentry.o(.ARM.Collect$$rtentry$$00000000)
    __rt_entry_presh_1                       0x08020263   Thumb Code     0  rtentry2.o(.ARM.Collect$$rtentry$$00000002)
    __rt_entry_sh                            0x08020263   Thumb Code     0  rtentry4.o(.ARM.Collect$$rtentry$$00000004)
    __rt_entry_li                            0x08020269   Thumb Code     0  rtentry2.o(.ARM.Collect$$rtentry$$0000000A)
    __rt_entry_postsh_1                      0x08020269   Thumb Code     0  rtentry2.o(.ARM.Collect$$rtentry$$00000009)
    __rt_entry_main                          0x0802026d   Thumb Code     0  rtentry2.o(.ARM.Collect$$rtentry$$0000000D)
    __rt_entry_postli_1                      0x0802026d   Thumb Code     0  rtentry2.o(.ARM.Collect$$rtentry$$0000000C)
    __rt_exit                                0x08020275   Thumb Code     0  rtexit.o(.ARM.Collect$$rtexit$$00000000)
    __rt_exit_ls                             0x08020277   Thumb Code     0  rtexit2.o(.ARM.Collect$$rtexit$$00000003)
    __rt_exit_prels_1                        0x08020277   Thumb Code     0  rtexit2.o(.ARM.Collect$$rtexit$$00000002)
    __rt_exit_exit                           0x0802027b   Thumb Code     0  rtexit2.o(.ARM.Collect$$rtexit$$00000004)
    __get_PSP                                0x08020281   Thumb Code     6  core_cm3.o(.emb_text)
    __set_PSP                                0x08020287   Thumb Code     6  core_cm3.o(.emb_text)
    __get_MSP                                0x0802028d   Thumb Code     6  core_cm3.o(.emb_text)
    __set_MSP                                0x08020293   Thumb Code     6  core_cm3.o(.emb_text)
    __REV16                                  0x08020299   Thumb Code     4  core_cm3.o(.emb_text)
    __REVSH                                  0x0802029d   Thumb Code     4  core_cm3.o(.emb_text)
    _maybe_terminate_alloc                   0x080202a1   Thumb Code     0  maybetermalloc1.o(.emb_text)
    main                                     0x080202a1   Thumb Code   350  main.o(.text)
    mem_clr                                  0x08020429   Thumb Code    22  mem_str.o(.text)
    mem_set                                  0x0802043f   Thumb Code    18  mem_str.o(.text)
    mem_cpy                                  0x08020451   Thumb Code    22  mem_str.o(.text)
    watchdog_GPIO_config                     0x08020469   Thumb Code    66  p_sys.o(.text)
    feed_dog                                 0x080204ab   Thumb Code    28  p_sys.o(.text)
    timer_isr_hook                           0x080204c7   Thumb Code    92  p_sys.o(.text)
    timer0_check_timer                       0x08020523   Thumb Code    66  p_sys.o(.text)
    get_timer0_clock                         0x08020565   Thumb Code     6  p_sys.o(.text)
    select_138                               0x08020589   Thumb Code   204  hc595.o(.text)
    Device_74HC595_init                      0x08020655   Thumb Code    24  hc595.o(.text)
    HC595_GPIO_config                        0x0802066d   Thumb Code    82  hc595.o(.text)
    Refresh_74HC595_status                   0x080206bf   Thumb Code   320  hc595.o(.text)
    AppInit                                  0x08020821   Thumb Code    36  myapp.o(.text)
    AppStart                                 0x08020845   Thumb Code     2  myapp.o(.text)
    AppProcess                               0x08020847   Thumb Code     2  myapp.o(.text)
    App100ms                                 0x08020849   Thumb Code    62  myapp.o(.text)
    App1000ms                                0x08020887   Thumb Code     2  myapp.o(.text)
    SetDeviceId                              0x08020889   Thumb Code    30  myapp.o(.text)
    SetTrainId                               0x080208a7   Thumb Code    32  myapp.o(.text)
    AudioSetVolume                           0x080208dd   Thumb Code    58  myaudio.o(.text)
    AudioInit                                0x08020917   Thumb Code   226  myaudio.o(.text)
    AudioProcess                             0x080209f9   Thumb Code    74  myaudio.o(.text)
    Audio100ms                               0x08020a43   Thumb Code    28  myaudio.o(.text)
    AudioWriteFrontData                      0x08020a5f   Thumb Code    44  myaudio.o(.text)
    AudioWriteBackData                       0x08020a8b   Thumb Code    38  myaudio.o(.text)
    AudioListenSendProcess                   0x08020ab1   Thumb Code    44  myaudio.o(.text)
    RCC_Configuration                        0x08020b35   Thumb Code    36  myboard.o(.text)
    GPIO_Configuration                       0x08020b59   Thumb Code   750  myboard.o(.text)
    NVIC_Configuration                       0x08020e47   Thumb Code     2  myboard.o(.text)
    LED1Flash                                0x08020e49   Thumb Code    28  myboard.o(.text)
    LED1On                                   0x08020e65   Thumb Code    12  myboard.o(.text)
    LED1Off                                  0x08020e71   Thumb Code    12  myboard.o(.text)
    LED2Flash                                0x08020e7d   Thumb Code    28  myboard.o(.text)
    LED2On                                   0x08020e99   Thumb Code    12  myboard.o(.text)
    LED2Off                                  0x08020ea5   Thumb Code    12  myboard.o(.text)
    WriteL3Data                              0x08020eb1   Thumb Code    32  myboard.o(.text)
    WriteL3Clock                             0x08020ed1   Thumb Code    32  myboard.o(.text)
    WriteL3Mode                              0x08020ef1   Thumb Code    28  myboard.o(.text)
    CommanderSendString                      0x08020f21   Thumb Code    22  mycommander.o(.text)
    CommanderSendTrainId                     0x08020f37   Thumb Code    32  mycommander.o(.text)
    CommanderSendDeviceId                    0x08020f57   Thumb Code    32  mycommander.o(.text)
    CommanderSendDeviceType                  0x08020f77   Thumb Code    32  mycommander.o(.text)
    CommanderSendLocalIp                     0x08020f97   Thumb Code    46  mycommander.o(.text)
    CommanderInit                            0x08020fc5   Thumb Code    42  mycommander.o(.text)
    CommanderSend_route_mask_mac             0x08020fef   Thumb Code   110  mycommander.o(.text)
    send_AppInfo                             0x0802105d   Thumb Code   124  mycommander.o(.text)
    send_downloadReq                         0x080210d9   Thumb Code   146  mycommander.o(.text)
    CommanderReceive                         0x0802116b   Thumb Code   390  mycommander.o(.text)
    EthernetMacDmaConfig                     0x08021401   Thumb Code   148  myethernet.o(.text)
    EthernetGpioConfig                       0x08021495   Thumb Code   200  myethernet.o(.text)
    EthernetInit                             0x0802155d   Thumb Code    12  myethernet.o(.text)
    send_http_data                           0x08021667   Thumb Code    28  myhttpd.o(.text)
    fill_tcp_data                            0x08021683   Thumb Code    26  myhttpd.o(.text)
    find_name_from_recv_data                 0x0802169d   Thumb Code   152  myhttpd.o(.text)
    html_set_mode                            0x08021735   Thumb Code    88  myhttpd.o(.text)
    fill_run_info                            0x0802178d   Thumb Code   214  myhttpd.o(.text)
    HttpdInit                                0x08021e73   Thumb Code    54  myhttpd.o(.text)
    set_run_iap_req                          0x08021ea9   Thumb Code     6  myhttpd.o(.text)
    check_iap_req_process                    0x08021eaf   Thumb Code    96  myhttpd.o(.text)
    AT24C32_Init                             0x08021f65   Thumb Code    66  myi2c.o(.text)
    AT24C32_ByteWrite                        0x08021fa7   Thumb Code   170  myi2c.o(.text)
    AT24C32_ByteRead                         0x08022051   Thumb Code   238  myi2c.o(.text)
    AT24C32_PageWrite                        0x0802213f   Thumb Code   204  myi2c.o(.text)
    AT24C32_PageRead                         0x0802220b   Thumb Code   272  myi2c.o(.text)
    I2cKsz8863Init                           0x0802231b   Thumb Code     2  myi2c.o(.text)
    I2cKsz8863ReadByte                       0x0802231d   Thumb Code     8  myi2c.o(.text)
    I2cKsz8863WriteByte                      0x08022325   Thumb Code     2  myi2c.o(.text)
    I2s2_Init                                0x08022341   Thumb Code    72  myi2s.o(.text)
    DmaPlay_Init                             0x08022389   Thumb Code   210  myi2s.o(.text)
    DmaPlayWriteRight                        0x0802245b   Thumb Code    72  myi2s.o(.text)
    DmaPlayWriteLeft                         0x080224a3   Thumb Code    74  myi2s.o(.text)
    DmaPlay_Isr                              0x080224ed   Thumb Code   104  myi2s.o(.text)
    I2s3_Init                                0x08022555   Thumb Code    72  myi2s.o(.text)
    DmaListen_Init                           0x0802259d   Thumb Code   222  myi2s.o(.text)
    DmaListenUpLoadLeft                      0x0802267b   Thumb Code    74  myi2s.o(.text)
    DmaListen_Isr                            0x080226c5   Thumb Code    80  myi2s.o(.text)
    L3Delay                                  0x08022715   Thumb Code   116  myi2s.o(.text)
    L3SendByte                               0x08022789   Thumb Code   116  myi2s.o(.text)
    L3WriteUda1341Status                     0x080227fd   Thumb Code    36  myi2s.o(.text)
    L3WriteUda1341Data0                      0x08022821   Thumb Code    76  myi2s.o(.text)
    L3WriteUda1341Data1                      0x0802286d   Thumb Code     2  myi2s.o(.text)
    L3InitUda1341                            0x0802286f   Thumb Code    12  myi2s.o(.text)
    L3Uda1341SetVolume                       0x0802287b   Thumb Code    82  myi2s.o(.text)
    L3Uda1341SetBassTreble                   0x080228cd   Thumb Code    86  myi2s.o(.text)
    L3Uda1341SetInputGain                    0x08022923   Thumb Code    64  myi2s.o(.text)
    UdpPlayclkSendInit                       0x08022965   Thumb Code    26  mylwip.o(.text)
    UdpPlayclkReceiveCallback                0x0802297f   Thumb Code    32  mylwip.o(.text)
    UdpPlayclkRcvInit                        0x0802299f   Thumb Code    40  mylwip.o(.text)
    UdpTalkSendInit                          0x080229c7   Thumb Code    26  mylwip.o(.text)
    UdpTalkReceiveCallback                   0x080229e1   Thumb Code    32  mylwip.o(.text)
    UdpTalkRcvInit                           0x08022a01   Thumb Code    40  mylwip.o(.text)
    UdpBroadcastSendInit                     0x08022a29   Thumb Code    26  mylwip.o(.text)
    UdpBroadcastReceiveCallback              0x08022a43   Thumb Code    32  mylwip.o(.text)
    UdpBroadcastRcvInit                      0x08022a63   Thumb Code    40  mylwip.o(.text)
    UdpControlSendInit                       0x08022a8b   Thumb Code    26  mylwip.o(.text)
    UdpControlReceiveCallback                0x08022aa5   Thumb Code    32  mylwip.o(.text)
    UdpControlRcvInit                        0x08022ac5   Thumb Code    40  mylwip.o(.text)
    UdpCommanderReceiveCallback              0x08022aed   Thumb Code    32  mylwip.o(.text)
    UdpCommanderInit                         0x08022b0d   Thumb Code    40  mylwip.o(.text)
    UdpTestSendInit                          0x08022b35   Thumb Code    26  mylwip.o(.text)
    UdpTestReceiveCallback                   0x08022b4f   Thumb Code    32  mylwip.o(.text)
    UdpTestRcvInit                           0x08022b6f   Thumb Code    40  mylwip.o(.text)
    LwipInit                                 0x08022b97   Thumb Code   238  mylwip.o(.text)
    LwipPktHandle                            0x08022c85   Thumb Code    10  mylwip.o(.text)
    LwipProcess                              0x08022c8f   Thumb Code    14  mylwip.o(.text)
    LwipPeriodicHandle                       0x08022c9d   Thumb Code    34  mylwip.o(.text)
    Lwip50ms                                 0x08022cbf   Thumb Code     8  mylwip.o(.text)
    UdpTestSend                              0x08022cc7   Thumb Code    70  mylwip.o(.text)
    UdpCommanderSend                         0x08022d0d   Thumb Code   152  mylwip.o(.text)
    UdpControlSend                           0x08022da5   Thumb Code    70  mylwip.o(.text)
    UdpBroadcastSend                         0x08022deb   Thumb Code    70  mylwip.o(.text)
    UdpTalkSend                              0x08022e31   Thumb Code    70  mylwip.o(.text)
    UdpPlayclkSend                           0x08022e77   Thumb Code    70  mylwip.o(.text)
    Delay                                    0x08022ed1   Thumb Code    34  mymiscfunc.o(.text)
    bcd_to_data                              0x08022ef3   Thumb Code    28  mymiscfunc.o(.text)
    data_to_bcd                              0x08022f0f   Thumb Code    36  mymiscfunc.o(.text)
    shifang                                  0x08022f33   Thumb Code    38  mymiscfunc.o(.text)
    shiliufang                               0x08022f59   Thumb Code    34  mymiscfunc.o(.text)
    IndexAddn                                0x08022f7b   Thumb Code    30  mymiscfunc.o(.text)
    IndexAdd1                                0x08022f99   Thumb Code    14  mymiscfunc.o(.text)
    LineToWords                              0x08022fa7   Thumb Code   120  mymiscfunc.o(.text)
    StrSplitFrontChar                        0x0802301f   Thumb Code    72  mymiscfunc.o(.text)
    StrSplitBehindChar                       0x08023067   Thumb Code    74  mymiscfunc.o(.text)
    StrToInt                                 0x080230b1   Thumb Code   212  mymiscfunc.o(.text)
    IntToStr                                 0x08023185   Thumb Code   182  mymiscfunc.o(.text)
    Ip4toIp32                                0x0802323b   Thumb Code    28  mymiscfunc.o(.text)
    NetInit                                  0x0802325d   Thumb Code   186  mynet.o(.text)
    NetPlayclkSendProcess                    0x08023317   Thumb Code    48  mynet.o(.text)
    NetProcess                               0x08023347   Thumb Code     8  mynet.o(.text)
    Net50ms                                  0x0802334f   Thumb Code     2  mynet.o(.text)
    NetControlSendInspection                 0x08023351   Thumb Code    52  mynet.o(.text)
    Net500ms                                 0x08023385   Thumb Code     8  mynet.o(.text)
    NetIp4toIp32                             0x0802338d   Thumb Code    28  mynet.o(.text)
    NetSetLocalIp4                           0x080233a9   Thumb Code   164  mynet.o(.text)
    NetSetLocalIp32                          0x0802344d   Thumb Code    82  mynet.o(.text)
    NetControlReceiveProcess                 0x0802349f   Thumb Code    42  mynet.o(.text)
    NetControlReceiveVolume                  0x080234c9   Thumb Code    38  mynet.o(.text)
    NetBroadcastReceiveProcess               0x080234ef   Thumb Code   214  mynet.o(.text)
    NetBroadcastSendProcess                  0x080235c5   Thumb Code     4  mynet.o(.text)
    NetTalkReceiveProcess                    0x080235c9   Thumb Code     8  mynet.o(.text)
    NetTalkSend                              0x080235d1   Thumb Code     8  mynet.o(.text)
    NetPlayclkReceiveProcess                 0x080235d9   Thumb Code    64  mynet.o(.text)
    ProtocolInit                             0x08023661   Thumb Code    64  myprotocol.o(.text)
    ProtocolRcvHeadCheck                     0x080236a1   Thumb Code   112  myprotocol.o(.text)
    ProtocolRcvGetSrcDevType                 0x08023711   Thumb Code     8  myprotocol.o(.text)
    ProtocolRcvGetSrcDevId                   0x08023719   Thumb Code     8  myprotocol.o(.text)
    ProtocolRcvGetKeyword                    0x08023721   Thumb Code    10  myprotocol.o(.text)
    ProtocolRcvGetDataLength                 0x0802372b   Thumb Code    10  myprotocol.o(.text)
    ProtocolRcvGetDataPointer                0x08023735   Thumb Code    10  myprotocol.o(.text)
    ProtocolRcvGetControlVolume              0x0802373f   Thumb Code    42  myprotocol.o(.text)
    ProtocolHeadMake                         0x08023769   Thumb Code    86  myprotocol.o(.text)
    ProtocolSndGetInspectionPack             0x080237bf   Thumb Code    92  myprotocol.o(.text)
    ProtocolSndGetLocalIpPack                0x0802381b   Thumb Code    38  myprotocol.o(.text)
    ProtocolSndGetDevIdPack                  0x08023841   Thumb Code    38  myprotocol.o(.text)
    ProtocolSndGetPlayclkPack                0x08023867   Thumb Code    86  myprotocol.o(.text)
    ProtocolSndGetVolumePack                 0x080238bd   Thumb Code    38  myprotocol.o(.text)
    ProtocolSndGetAudioListenPack            0x080238e3   Thumb Code    84  myprotocol.o(.text)
    StorageInit                              0x08023955   Thumb Code     8  mystorage.o(.text)
    StorageInfoSave                          0x0802395d   Thumb Code    10  mystorage.o(.text)
    StorageInfoSaveProcess                   0x08023967   Thumb Code   314  mystorage.o(.text)
    StorageInfoRead                          0x08023aa1   Thumb Code   204  mystorage.o(.text)
    SysTick_Init                             0x08023b8d   Thumb Code   114  mytimer.o(.text)
    SysTick_Isr                              0x08023bff   Thumb Code    92  mytimer.o(.text)
    Timer1_Init                              0x08023c5b   Thumb Code     2  mytimer.o(.text)
    Timer1_Isr                               0x08023c5d   Thumb Code     2  mytimer.o(.text)
    MyTimer10                                0x08023c5f   Thumb Code     2  mytimer.o(.text)
    MyTimer20                                0x08023c61   Thumb Code     2  mytimer.o(.text)
    MyTimer50                                0x08023c63   Thumb Code    12  mytimer.o(.text)
    MyTimer100                               0x08023c6f   Thumb Code     8  mytimer.o(.text)
    MyTimer500                               0x08023c77   Thumb Code    20  mytimer.o(.text)
    MyTimer1000                              0x08023c8b   Thumb Code     8  mytimer.o(.text)
    MyTimer2000                              0x08023c93   Thumb Code     2  mytimer.o(.text)
    NMI_Handler                              0x08023cbd   Thumb Code     2  stm32f2xx_it.o(.text)
    HardFault_Handler                        0x08023cbf   Thumb Code     4  stm32f2xx_it.o(.text)
    MemManage_Handler                        0x08023cc3   Thumb Code     4  stm32f2xx_it.o(.text)
    BusFault_Handler                         0x08023cc7   Thumb Code     4  stm32f2xx_it.o(.text)
    UsageFault_Handler                       0x08023ccb   Thumb Code     8  stm32f2xx_it.o(.text)
    DebugMon_Handler                         0x08023cd3   Thumb Code     2  stm32f2xx_it.o(.text)
    SysTick_Handler                          0x08023cd5   Thumb Code     8  stm32f2xx_it.o(.text)
    DMA1_Stream2_IRQHandler                  0x08023cdd   Thumb Code     8  stm32f2xx_it.o(.text)
    DMA1_Stream4_IRQHandler                  0x08023ce5   Thumb Code     8  stm32f2xx_it.o(.text)
    Device_id_GPIO_config                    0x08023ced   Thumb Code    50  bsp_dev_id.o(.text)
    get_devid_call                           0x08023d1f   Thumb Code   100  bsp_dev_id.o(.text)
    get_devecie_id                           0x08023d83   Thumb Code    86  bsp_dev_id.o(.text)
    check_devid                              0x08023dd9   Thumb Code    32  bsp_dev_id.o(.text)
    Reset_Handler                            0x08023e01   Thumb Code     8  startup_stm32f2xx.o(.text)
    SVC_Handler                              0x08023e13   Thumb Code     2  startup_stm32f2xx.o(.text)
    PendSV_Handler                           0x08023e17   Thumb Code     2  startup_stm32f2xx.o(.text)
    ADC_IRQHandler                           0x08023e1b   Thumb Code     0  startup_stm32f2xx.o(.text)
    CAN1_RX0_IRQHandler                      0x08023e1b   Thumb Code     0  startup_stm32f2xx.o(.text)
    CAN1_RX1_IRQHandler                      0x08023e1b   Thumb Code     0  startup_stm32f2xx.o(.text)
    CAN1_SCE_IRQHandler                      0x08023e1b   Thumb Code     0  startup_stm32f2xx.o(.text)
    CAN1_TX_IRQHandler                       0x08023e1b   Thumb Code     0  startup_stm32f2xx.o(.text)
    CAN2_RX0_IRQHandler                      0x08023e1b   Thumb Code     0  startup_stm32f2xx.o(.text)
    CAN2_RX1_IRQHandler                      0x08023e1b   Thumb Code     0  startup_stm32f2xx.o(.text)
    CAN2_SCE_IRQHandler                      0x08023e1b   Thumb Code     0  startup_stm32f2xx.o(.text)
    CAN2_TX_IRQHandler                       0x08023e1b   Thumb Code     0  startup_stm32f2xx.o(.text)
    CRYP_IRQHandler                          0x08023e1b   Thumb Code     0  startup_stm32f2xx.o(.text)
    DCMI_IRQHandler                          0x08023e1b   Thumb Code     0  startup_stm32f2xx.o(.text)
    DMA1_Stream0_IRQHandler                  0x08023e1b   Thumb Code     0  startup_stm32f2xx.o(.text)
    DMA1_Stream1_IRQHandler                  0x08023e1b   Thumb Code     0  startup_stm32f2xx.o(.text)
    DMA1_Stream3_IRQHandler                  0x08023e1b   Thumb Code     0  startup_stm32f2xx.o(.text)
    DMA1_Stream5_IRQHandler                  0x08023e1b   Thumb Code     0  startup_stm32f2xx.o(.text)
    DMA1_Stream6_IRQHandler                  0x08023e1b   Thumb Code     0  startup_stm32f2xx.o(.text)
    DMA1_Stream7_IRQHandler                  0x08023e1b   Thumb Code     0  startup_stm32f2xx.o(.text)
    DMA2_Stream0_IRQHandler                  0x08023e1b   Thumb Code     0  startup_stm32f2xx.o(.text)
    DMA2_Stream1_IRQHandler                  0x08023e1b   Thumb Code     0  startup_stm32f2xx.o(.text)
    DMA2_Stream2_IRQHandler                  0x08023e1b   Thumb Code     0  startup_stm32f2xx.o(.text)
    DMA2_Stream3_IRQHandler                  0x08023e1b   Thumb Code     0  startup_stm32f2xx.o(.text)
    DMA2_Stream4_IRQHandler                  0x08023e1b   Thumb Code     0  startup_stm32f2xx.o(.text)
    DMA2_Stream5_IRQHandler                  0x08023e1b   Thumb Code     0  startup_stm32f2xx.o(.text)
    DMA2_Stream6_IRQHandler                  0x08023e1b   Thumb Code     0  startup_stm32f2xx.o(.text)
    DMA2_Stream7_IRQHandler                  0x08023e1b   Thumb Code     0  startup_stm32f2xx.o(.text)
    ETH_IRQHandler                           0x08023e1b   Thumb Code     0  startup_stm32f2xx.o(.text)
    ETH_WKUP_IRQHandler                      0x08023e1b   Thumb Code     0  startup_stm32f2xx.o(.text)
    EXTI0_IRQHandler                         0x08023e1b   Thumb Code     0  startup_stm32f2xx.o(.text)
    EXTI15_10_IRQHandler                     0x08023e1b   Thumb Code     0  startup_stm32f2xx.o(.text)
    EXTI1_IRQHandler                         0x08023e1b   Thumb Code     0  startup_stm32f2xx.o(.text)
    EXTI2_IRQHandler                         0x08023e1b   Thumb Code     0  startup_stm32f2xx.o(.text)
    EXTI3_IRQHandler                         0x08023e1b   Thumb Code     0  startup_stm32f2xx.o(.text)
    EXTI4_IRQHandler                         0x08023e1b   Thumb Code     0  startup_stm32f2xx.o(.text)
    EXTI9_5_IRQHandler                       0x08023e1b   Thumb Code     0  startup_stm32f2xx.o(.text)
    FLASH_IRQHandler                         0x08023e1b   Thumb Code     0  startup_stm32f2xx.o(.text)
    FSMC_IRQHandler                          0x08023e1b   Thumb Code     0  startup_stm32f2xx.o(.text)
    HASH_RNG_IRQHandler                      0x08023e1b   Thumb Code     0  startup_stm32f2xx.o(.text)
    I2C1_ER_IRQHandler                       0x08023e1b   Thumb Code     0  startup_stm32f2xx.o(.text)
    I2C1_EV_IRQHandler                       0x08023e1b   Thumb Code     0  startup_stm32f2xx.o(.text)
    I2C2_ER_IRQHandler                       0x08023e1b   Thumb Code     0  startup_stm32f2xx.o(.text)
    I2C2_EV_IRQHandler                       0x08023e1b   Thumb Code     0  startup_stm32f2xx.o(.text)
    I2C3_ER_IRQHandler                       0x08023e1b   Thumb Code     0  startup_stm32f2xx.o(.text)
    I2C3_EV_IRQHandler                       0x08023e1b   Thumb Code     0  startup_stm32f2xx.o(.text)
    OTG_FS_IRQHandler                        0x08023e1b   Thumb Code     0  startup_stm32f2xx.o(.text)
    OTG_FS_WKUP_IRQHandler                   0x08023e1b   Thumb Code     0  startup_stm32f2xx.o(.text)
    OTG_HS_EP1_IN_IRQHandler                 0x08023e1b   Thumb Code     0  startup_stm32f2xx.o(.text)
    OTG_HS_EP1_OUT_IRQHandler                0x08023e1b   Thumb Code     0  startup_stm32f2xx.o(.text)
    OTG_HS_IRQHandler                        0x08023e1b   Thumb Code     0  startup_stm32f2xx.o(.text)
    OTG_HS_WKUP_IRQHandler                   0x08023e1b   Thumb Code     0  startup_stm32f2xx.o(.text)
    PVD_IRQHandler                           0x08023e1b   Thumb Code     0  startup_stm32f2xx.o(.text)
    RCC_IRQHandler                           0x08023e1b   Thumb Code     0  startup_stm32f2xx.o(.text)
    RTC_Alarm_IRQHandler                     0x08023e1b   Thumb Code     0  startup_stm32f2xx.o(.text)
    RTC_WKUP_IRQHandler                      0x08023e1b   Thumb Code     0  startup_stm32f2xx.o(.text)
    SDIO_IRQHandler                          0x08023e1b   Thumb Code     0  startup_stm32f2xx.o(.text)
    SPI1_IRQHandler                          0x08023e1b   Thumb Code     0  startup_stm32f2xx.o(.text)
    SPI2_IRQHandler                          0x08023e1b   Thumb Code     0  startup_stm32f2xx.o(.text)
    SPI3_IRQHandler                          0x08023e1b   Thumb Code     0  startup_stm32f2xx.o(.text)
    TAMP_STAMP_IRQHandler                    0x08023e1b   Thumb Code     0  startup_stm32f2xx.o(.text)
    TIM1_BRK_TIM9_IRQHandler                 0x08023e1b   Thumb Code     0  startup_stm32f2xx.o(.text)
    TIM1_CC_IRQHandler                       0x08023e1b   Thumb Code     0  startup_stm32f2xx.o(.text)
    TIM1_TRG_COM_TIM11_IRQHandler            0x08023e1b   Thumb Code     0  startup_stm32f2xx.o(.text)
    TIM1_UP_TIM10_IRQHandler                 0x08023e1b   Thumb Code     0  startup_stm32f2xx.o(.text)
    TIM2_IRQHandler                          0x08023e1b   Thumb Code     0  startup_stm32f2xx.o(.text)
    TIM3_IRQHandler                          0x08023e1b   Thumb Code     0  startup_stm32f2xx.o(.text)
    TIM4_IRQHandler                          0x08023e1b   Thumb Code     0  startup_stm32f2xx.o(.text)
    TIM5_IRQHandler                          0x08023e1b   Thumb Code     0  startup_stm32f2xx.o(.text)
    TIM6_DAC_IRQHandler                      0x08023e1b   Thumb Code     0  startup_stm32f2xx.o(.text)
    TIM7_IRQHandler                          0x08023e1b   Thumb Code     0  startup_stm32f2xx.o(.text)
    TIM8_BRK_TIM12_IRQHandler                0x08023e1b   Thumb Code     0  startup_stm32f2xx.o(.text)
    TIM8_CC_IRQHandler                       0x08023e1b   Thumb Code     0  startup_stm32f2xx.o(.text)
    TIM8_TRG_COM_TIM14_IRQHandler            0x08023e1b   Thumb Code     0  startup_stm32f2xx.o(.text)
    TIM8_UP_TIM13_IRQHandler                 0x08023e1b   Thumb Code     0  startup_stm32f2xx.o(.text)
    UART4_IRQHandler                         0x08023e1b   Thumb Code     0  startup_stm32f2xx.o(.text)
    UART5_IRQHandler                         0x08023e1b   Thumb Code     0  startup_stm32f2xx.o(.text)
    USART1_IRQHandler                        0x08023e1b   Thumb Code     0  startup_stm32f2xx.o(.text)
    USART2_IRQHandler                        0x08023e1b   Thumb Code     0  startup_stm32f2xx.o(.text)
    USART3_IRQHandler                        0x08023e1b   Thumb Code     0  startup_stm32f2xx.o(.text)
    USART6_IRQHandler                        0x08023e1b   Thumb Code     0  startup_stm32f2xx.o(.text)
    WWDG_IRQHandler                          0x08023e1b   Thumb Code     0  startup_stm32f2xx.o(.text)
    __user_initial_stackheap                 0x08023e1d   Thumb Code     0  startup_stm32f2xx.o(.text)
    SystemInit                               0x08023eeb   Thumb Code    78  system_stm32f2xx.o(.text)
    SystemCoreClockUpdate                    0x08023f39   Thumb Code   172  system_stm32f2xx.o(.text)
    ETH_DeInit                               0x0802402b   Thumb Code    22  stm32f2x7_eth.o(.text)
    ETH_StructInit                           0x08024041   Thumb Code   210  stm32f2x7_eth.o(.text)
    ETH_Init                                 0x08024113   Thumb Code   516  stm32f2x7_eth.o(.text)
    ETH_DMAReceptionCmd                      0x08024317   Thumb Code    30  stm32f2x7_eth.o(.text)
    ETH_DMATransmissionCmd                   0x08024335   Thumb Code    30  stm32f2x7_eth.o(.text)
    ETH_MACReceptionCmd                      0x08024353   Thumb Code    30  stm32f2x7_eth.o(.text)
    ETH_FlushTransmitFIFO                    0x08024371   Thumb Code    14  stm32f2x7_eth.o(.text)
    ETH_MACTransmissionCmd                   0x0802437f   Thumb Code    30  stm32f2x7_eth.o(.text)
    ETH_Start                                0x0802439d   Thumb Code    32  stm32f2x7_eth.o(.text)
    ETH_GetFlowControlBusyStatus             0x080243bd   Thumb Code    26  stm32f2x7_eth.o(.text)
    ETH_InitiatePauseControlFrame            0x080243d7   Thumb Code    14  stm32f2x7_eth.o(.text)
    ETH_BackPressureActivationCmd            0x080243e5   Thumb Code    30  stm32f2x7_eth.o(.text)
    ETH_GetMACFlagStatus                     0x08024403   Thumb Code    26  stm32f2x7_eth.o(.text)
    ETH_GetMACITStatus                       0x0802441d   Thumb Code    26  stm32f2x7_eth.o(.text)
    ETH_MACITConfig                          0x08024437   Thumb Code    30  stm32f2x7_eth.o(.text)
    ETH_MACAddressConfig                     0x08024455   Thumb Code    48  stm32f2x7_eth.o(.text)
    ETH_GetMACAddress                        0x08024485   Thumb Code    44  stm32f2x7_eth.o(.text)
    ETH_MACAddressPerfectFilterCmd           0x080244b1   Thumb Code    38  stm32f2x7_eth.o(.text)
    ETH_MACAddressFilterConfig               0x080244d7   Thumb Code    82  stm32f2x7_eth.o(.text)
    ETH_MACAddressMaskBytesFilterConfig      0x08024529   Thumb Code    34  stm32f2x7_eth.o(.text)
    ETH_Get_Received_Frame                   0x0802454b   Thumb Code    86  stm32f2x7_eth.o(.text)
    ETH_Get_Received_Frame_interrupt         0x080245a1   Thumb Code   274  stm32f2x7_eth.o(.text)
    ETH_Prepare_Transmit_Descriptors         0x080246b3   Thumb Code   240  stm32f2x7_eth.o(.text)
    ETH_DMARxDescChainInit                   0x080247a3   Thumb Code    90  stm32f2x7_eth.o(.text)
    ETH_CheckFrameReceived                   0x080247fd   Thumb Code   200  stm32f2x7_eth.o(.text)
    ETH_DMATxDescChainInit                   0x080248c5   Thumb Code   104  stm32f2x7_eth.o(.text)
    ETH_GetDMATxDescFlagStatus               0x0802492d   Thumb Code    24  stm32f2x7_eth.o(.text)
    ETH_GetDMATxDescCollisionCount           0x08024945   Thumb Code    10  stm32f2x7_eth.o(.text)
    ETH_SetDMATxDescOwnBit                   0x0802494f   Thumb Code    10  stm32f2x7_eth.o(.text)
    ETH_DMATxDescTransmitITConfig            0x08024959   Thumb Code    22  stm32f2x7_eth.o(.text)
    ETH_DMATxDescFrameSegmentConfig          0x0802496f   Thumb Code    10  stm32f2x7_eth.o(.text)
    ETH_DMATxDescChecksumInsertionConfig     0x08024979   Thumb Code    10  stm32f2x7_eth.o(.text)
    ETH_DMATxDescCRCCmd                      0x08024983   Thumb Code    22  stm32f2x7_eth.o(.text)
    ETH_DMATxDescSecondAddressChainedCmd     0x08024999   Thumb Code    22  stm32f2x7_eth.o(.text)
    ETH_DMATxDescShortFramePaddingCmd        0x080249af   Thumb Code    22  stm32f2x7_eth.o(.text)
    ETH_DMATxDescBufferSizeConfig            0x080249c5   Thumb Code    16  stm32f2x7_eth.o(.text)
    ETH_GetDMARxDescFlagStatus               0x080249d5   Thumb Code    24  stm32f2x7_eth.o(.text)
    ETH_GetDMAPTPRxDescExtendedFlagStatus    0x080249ed   Thumb Code    24  stm32f2x7_eth.o(.text)
    ETH_SetDMARxDescOwnBit                   0x08024a05   Thumb Code    10  stm32f2x7_eth.o(.text)
    ETH_GetDMARxDescFrameLength              0x08024a0f   Thumb Code    10  stm32f2x7_eth.o(.text)
    ETH_DMARxDescReceiveITConfig             0x08024a19   Thumb Code    22  stm32f2x7_eth.o(.text)
    ETH_GetDMARxDescBufferSize               0x08024a2f   Thumb Code    20  stm32f2x7_eth.o(.text)
    ETH_GetRxPktSize                         0x08024a43   Thumb Code    44  stm32f2x7_eth.o(.text)
    ETH_EnhancedDescriptorCmd                0x08024a6f   Thumb Code    30  stm32f2x7_eth.o(.text)
    ETH_SoftwareReset                        0x08024a8d   Thumb Code    14  stm32f2x7_eth.o(.text)
    ETH_GetSoftwareResetStatus               0x08024a9b   Thumb Code    26  stm32f2x7_eth.o(.text)
    ETH_GetDMAFlagStatus                     0x08024ab5   Thumb Code    26  stm32f2x7_eth.o(.text)
    ETH_DMAClearFlag                         0x08024acf   Thumb Code     6  stm32f2x7_eth.o(.text)
    ETH_DMAITConfig                          0x08024ad5   Thumb Code    30  stm32f2x7_eth.o(.text)
    ETH_GetDMAITStatus                       0x08024af3   Thumb Code    26  stm32f2x7_eth.o(.text)
    ETH_DMAClearITPendingBit                 0x08024b0d   Thumb Code     6  stm32f2x7_eth.o(.text)
    ETH_GetTransmitProcessState              0x08024b13   Thumb Code    10  stm32f2x7_eth.o(.text)
    ETH_GetReceiveProcessState               0x08024b1d   Thumb Code    10  stm32f2x7_eth.o(.text)
    ETH_GetFlushTransmitFIFOStatus           0x08024b27   Thumb Code    26  stm32f2x7_eth.o(.text)
    ETH_GetDMAOverflowStatus                 0x08024b41   Thumb Code    26  stm32f2x7_eth.o(.text)
    ETH_GetRxOverflowMissedFrameCounter      0x08024b5b   Thumb Code    10  stm32f2x7_eth.o(.text)
    ETH_GetBufferUnavailableMissedFrameCounter 0x08024b65   Thumb Code     8  stm32f2x7_eth.o(.text)
    ETH_GetCurrentTxDescStartAddress         0x08024b6d   Thumb Code     6  stm32f2x7_eth.o(.text)
    ETH_GetCurrentRxDescStartAddress         0x08024b73   Thumb Code     6  stm32f2x7_eth.o(.text)
    ETH_GetCurrentTxBufferAddress            0x08024b79   Thumb Code     6  stm32f2x7_eth.o(.text)
    ETH_GetCurrentRxBufferAddress            0x08024b7f   Thumb Code     6  stm32f2x7_eth.o(.text)
    ETH_ResumeDMATransmission                0x08024b85   Thumb Code    10  stm32f2x7_eth.o(.text)
    ETH_ResumeDMAReception                   0x08024b8f   Thumb Code    10  stm32f2x7_eth.o(.text)
    ETH_SetReceiveWatchdogTimer              0x08024b99   Thumb Code     6  stm32f2x7_eth.o(.text)
    ETH_ReadPHYRegister                      0x08024b9f   Thumb Code    96  stm32f2x7_eth.o(.text)
    ETH_WritePHYRegister                     0x08024bff   Thumb Code    96  stm32f2x7_eth.o(.text)
    ETH_PHYLoopBackCmd                       0x08024c5f   Thumb Code    56  stm32f2x7_eth.o(.text)
    ETH_ResetWakeUpFrameFilterRegisterPointer 0x08024c97   Thumb Code    14  stm32f2x7_eth.o(.text)
    ETH_SetWakeUpFrameFilterRegister         0x08024ca5   Thumb Code    28  stm32f2x7_eth.o(.text)
    ETH_GlobalUnicastWakeUpCmd               0x08024cc1   Thumb Code    30  stm32f2x7_eth.o(.text)
    ETH_GetPMTFlagStatus                     0x08024cdf   Thumb Code    26  stm32f2x7_eth.o(.text)
    ETH_WakeUpFrameDetectionCmd              0x08024cf9   Thumb Code    30  stm32f2x7_eth.o(.text)
    ETH_MagicPacketDetectionCmd              0x08024d17   Thumb Code    30  stm32f2x7_eth.o(.text)
    ETH_PowerDownCmd                         0x08024d35   Thumb Code    30  stm32f2x7_eth.o(.text)
    ETH_MMCCounterFullPreset                 0x08024d53   Thumb Code    16  stm32f2x7_eth.o(.text)
    ETH_MMCCounterHalfPreset                 0x08024d63   Thumb Code    30  stm32f2x7_eth.o(.text)
    ETH_MMCCounterFreezeCmd                  0x08024d81   Thumb Code    34  stm32f2x7_eth.o(.text)
    ETH_MMCResetOnReadCmd                    0x08024da3   Thumb Code    34  stm32f2x7_eth.o(.text)
    ETH_MMCCounterRolloverCmd                0x08024dc5   Thumb Code    34  stm32f2x7_eth.o(.text)
    ETH_MMCCountersReset                     0x08024de7   Thumb Code    16  stm32f2x7_eth.o(.text)
    ETH_MMCITConfig                          0x08024df7   Thumb Code    78  stm32f2x7_eth.o(.text)
    ETH_GetMMCITStatus                       0x08024e45   Thumb Code    96  stm32f2x7_eth.o(.text)
    ETH_GetMMCRegister                       0x08024ea5   Thumb Code     8  stm32f2x7_eth.o(.text)
    mem_init                                 0x08024f39   Thumb Code    86  mem.o(.text)
    mem_free                                 0x08024f8f   Thumb Code    70  mem.o(.text)
    mem_realloc                              0x08024fd5   Thumb Code   302  mem.o(.text)
    mem_malloc                               0x08025103   Thumb Code   244  mem.o(.text)
    mem_calloc                               0x080251f7   Thumb Code    34  mem.o(.text)
    memp_init                                0x0802522d   Thumb Code    94  memp.o(.text)
    memp_malloc                              0x0802528b   Thumb Code    40  memp.o(.text)
    memp_free                                0x080252b3   Thumb Code    28  memp.o(.text)
    netif_set_gw                             0x080252e1   Thumb Code    14  netif.o(.text)
    netif_set_netmask                        0x080252ef   Thumb Code    14  netif.o(.text)
    netif_set_ipaddr                         0x080252fd   Thumb Code   114  netif.o(.text)
    netif_set_addr                           0x0802536f   Thumb Code    40  netif.o(.text)
    netif_add                                0x08025397   Thumb Code   102  netif.o(.text)
    netif_set_default                        0x080253fd   Thumb Code     6  netif.o(.text)
    netif_remove                             0x08025403   Thumb Code    74  netif.o(.text)
    netif_find                               0x0802544d   Thumb Code    66  netif.o(.text)
    netif_set_up                             0x0802548f   Thumb Code    44  netif.o(.text)
    netif_set_down                           0x080254bb   Thumb Code    24  netif.o(.text)
    netif_is_up                              0x080254d3   Thumb Code    12  netif.o(.text)
    pbuf_free                                0x080254f5   Thumb Code   118  pbuf.o(.text)
    pbuf_alloc                               0x0802556b   Thumb Code   442  pbuf.o(.text)
    pbuf_realloc                             0x08025725   Thumb Code   124  pbuf.o(.text)
    pbuf_header                              0x080257a1   Thumb Code   134  pbuf.o(.text)
    pbuf_clen                                0x08025827   Thumb Code    22  pbuf.o(.text)
    pbuf_ref                                 0x0802583d   Thumb Code    12  pbuf.o(.text)
    pbuf_cat                                 0x08025849   Thumb Code    56  pbuf.o(.text)
    pbuf_chain                               0x08025881   Thumb Code    22  pbuf.o(.text)
    pbuf_dechain                             0x08025897   Thumb Code    62  pbuf.o(.text)
    pbuf_copy                                0x080258d5   Thumb Code   192  pbuf.o(.text)
    pbuf_copy_partial                        0x08025995   Thumb Code   154  pbuf.o(.text)
    pbuf_take                                0x08025a2f   Thumb Code   116  pbuf.o(.text)
    pbuf_coalesce                            0x08025aa3   Thumb Code    60  pbuf.o(.text)
    raw_input                                0x08025ae1   Thumb Code   102  raw.o(.text)
    raw_bind                                 0x08025b47   Thumb Code    18  raw.o(.text)
    raw_connect                              0x08025b59   Thumb Code    18  raw.o(.text)
    raw_recv                                 0x08025b6b   Thumb Code     6  raw.o(.text)
    raw_sendto                               0x08025b71   Thumb Code   156  raw.o(.text)
    raw_send                                 0x08025c0d   Thumb Code    20  raw.o(.text)
    raw_remove                               0x08025c21   Thumb Code    60  raw.o(.text)
    raw_new                                  0x08025c5d   Thumb Code    46  raw.o(.text)
    tcp_seg_free                             0x08025c91   Thumb Code    34  tcp.o(.text)
    tcp_segs_free                            0x08025cb3   Thumb Code    32  tcp.o(.text)
    tcp_pcb_purge                            0x08025cd3   Thumb Code    58  tcp.o(.text)
    tcp_slowtmr                              0x08025d0d   Thumb Code   758  tcp.o(.text)
    tcp_pcb_remove                           0x08026003   Thumb Code   150  tcp.o(.text)
    tcp_close                                0x08026099   Thumb Code   292  tcp.o(.text)
    tcp_update_rcv_ann_wnd                   0x080261bd   Thumb Code    78  tcp.o(.text)
    tcp_recved                               0x0802620b   Thumb Code    70  tcp.o(.text)
    tcp_recv_null                            0x08026251   Thumb Code    46  tcp.o(.text)
    tcp_fasttmr                              0x0802627f   Thumb Code   116  tcp.o(.text)
    tcp_tmr                                  0x080262f3   Thumb Code    32  tcp.o(.text)
    tcp_abandon                              0x08026313   Thumb Code   148  tcp.o(.text)
    tcp_bind                                 0x0802640f   Thumb Code   228  tcp.o(.text)
    tcp_listen_with_backlog                  0x080264fb   Thumb Code   224  tcp.o(.text)
    tcp_eff_send_mss                         0x080265db   Thumb Code    48  tcp.o(.text)
    tcp_next_iss                             0x0802660b   Thumb Code    20  tcp.o(.text)
    tcp_connect                              0x0802661f   Thumb Code   282  tcp.o(.text)
    tcp_setprio                              0x08026739   Thumb Code     4  tcp.o(.text)
    tcp_alloc                                0x080267c7   Thumb Code   200  tcp.o(.text)
    tcp_new                                  0x0802688f   Thumb Code    10  tcp.o(.text)
    tcp_arg                                  0x08026899   Thumb Code     4  tcp.o(.text)
    tcp_recv                                 0x0802689d   Thumb Code     6  tcp.o(.text)
    tcp_sent                                 0x080268a3   Thumb Code     6  tcp.o(.text)
    tcp_err                                  0x080268a9   Thumb Code     6  tcp.o(.text)
    tcp_accept                               0x080268af   Thumb Code     4  tcp.o(.text)
    tcp_poll                                 0x080268b3   Thumb Code    10  tcp.o(.text)
    tcp_debug_state_str                      0x080268bd   Thumb Code    10  tcp.o(.text)
    tcp_input                                0x08027779   Thumb Code  1128  tcp_in.o(.text)
    tcp_enqueue                              0x08027c9f   Thumb Code  1042  tcp_out.o(.text)
    tcp_send_ctrl                            0x080280b1   Thumb Code    32  tcp_out.o(.text)
    tcp_write                                0x080280d1   Thumb Code    72  tcp_out.o(.text)
    tcp_send_empty_ack                       0x08028119   Thumb Code   104  tcp_out.o(.text)
    tcp_output                               0x0802824b   Thumb Code   488  tcp_out.o(.text)
    tcp_rst                                  0x08028433   Thumb Code   186  tcp_out.o(.text)
    tcp_rexmit_rto                           0x080284ed   Thumb Code    64  tcp_out.o(.text)
    tcp_rexmit                               0x0802852d   Thumb Code    84  tcp_out.o(.text)
    tcp_rexmit_fast                          0x08028581   Thumb Code   146  tcp_out.o(.text)
    tcp_keepalive                            0x08028613   Thumb Code    94  tcp_out.o(.text)
    tcp_zero_window_probe                    0x08028671   Thumb Code   180  tcp_out.o(.text)
    udp_input                                0x08028725   Thumb Code   400  udp.o(.text)
    udp_bind                                 0x080288b5   Thumb Code   112  udp.o(.text)
    udp_sendto_if                            0x08028925   Thumb Code   208  udp.o(.text)
    udp_sendto                               0x080289f5   Thumb Code    46  udp.o(.text)
    udp_send                                 0x08028a23   Thumb Code    22  udp.o(.text)
    udp_connect                              0x08028a39   Thumb Code    96  udp.o(.text)
    udp_disconnect                           0x08028a99   Thumb Code    32  udp.o(.text)
    udp_recv                                 0x08028ab9   Thumb Code     6  udp.o(.text)
    udp_remove                               0x08028abf   Thumb Code    60  udp.o(.text)
    udp_new                                  0x08028afb   Thumb Code    30  udp.o(.text)
    autoip_init                              0x08028b21   Thumb Code     2  autoip.o(.text)
    autoip_start                             0x08028be3   Thumb Code   106  autoip.o(.text)
    autoip_network_changed                   0x08028d05   Thumb Code    28  autoip.o(.text)
    autoip_stop                              0x08028d21   Thumb Code    22  autoip.o(.text)
    autoip_tmr                               0x08028d37   Thumb Code   306  autoip.o(.text)
    autoip_arp_reply                         0x08028e69   Thumb Code   186  autoip.o(.text)
    icmp_input                               0x08028f45   Thumb Code   380  icmp.o(.text)
    icmp_dest_unreach                        0x08029139   Thumb Code    20  icmp.o(.text)
    icmp_time_exceeded                       0x0802914d   Thumb Code    20  icmp.o(.text)
    htonl                                    0x08029161   Thumb Code    28  inet.o(.text)
    inet_aton                                0x0802917d   Thumb Code   362  inet.o(.text)
    inet_addr                                0x080292e7   Thumb Code    24  inet.o(.text)
    inet_ntoa                                0x080292ff   Thumb Code   130  inet.o(.text)
    htons                                    0x08029381   Thumb Code    16  inet.o(.text)
    ntohs                                    0x08029391   Thumb Code    12  inet.o(.text)
    ntohl                                    0x0802939d   Thumb Code    12  inet.o(.text)
    inet_chksum_pseudo                       0x08029405   Thumb Code   168  inet_chksum.o(.text)
    inet_chksum                              0x080294ad   Thumb Code    20  inet_chksum.o(.text)
    inet_chksum_pbuf                         0x080294c1   Thumb Code    90  inet_chksum.o(.text)
    ip_route                                 0x0802951d   Thumb Code    70  ip.o(.text)
    ip_input                                 0x08029563   Thumb Code   396  ip.o(.text)
    ip_output_if                             0x080296ef   Thumb Code   254  ip.o(.text)
    ip_output                                0x080297ed   Thumb Code    52  ip.o(.text)
    ip_addr_isbroadcast                      0x08029835   Thumb Code    78  ip_addr.o(.text)
    ip_reass_tmr                             0x08029933   Thumb Code    52  ip_frag.o(.text)
    ip_reass                                 0x08029ba3   Thumb Code   422  ip_frag.o(.text)
    ip_frag                                  0x08029d49   Thumb Code   346  ip_frag.o(.text)
    etharp_tmr                               0x08029ed7   Thumb Code   164  etharp.o(.text)
    etharp_find_addr                         0x0802a2a5   Thumb Code    96  etharp.o(.text)
    etharp_ip_input                          0x0802a305   Thumb Code    64  etharp.o(.text)
    etharp_arp_input                         0x0802a345   Thumb Code   344  etharp.o(.text)
    etharp_raw                               0x0802a49d   Thumb Code   224  etharp.o(.text)
    etharp_request                           0x0802a57d   Thumb Code    40  etharp.o(.text)
    etharp_query                             0x0802a5a5   Thumb Code   394  etharp.o(.text)
    etharp_output                            0x0802a72f   Thumb Code   206  etharp.o(.text)
    ethernet_input                           0x0802a7fd   Thumb Code   128  etharp.o(.text)
    ethernetif_input                         0x0802a9f7   Thumb Code    46  ethernetif.o(.text)
    ethernetif_init                          0x0802aa25   Thumb Code    44  ethernetif.o(.text)
    NVIC_PriorityGroupConfig                 0x0802aa79   Thumb Code    12  misc.o(.text)
    NVIC_Init                                0x0802aa85   Thumb Code   136  misc.o(.text)
    NVIC_SetVectorTable                      0x0802ab0d   Thumb Code    16  misc.o(.text)
    NVIC_SystemLPConfig                      0x0802ab1d   Thumb Code    30  misc.o(.text)
    SysTick_CLKSourceConfig                  0x0802ab3b   Thumb Code    40  misc.o(.text)
    DMA_DeInit                               0x0802ab81   Thumb Code   300  stm32f2xx_dma.o(.text)
    DMA_Init                                 0x0802acad   Thumb Code   110  stm32f2xx_dma.o(.text)
    DMA_StructInit                           0x0802ad1b   Thumb Code    36  stm32f2xx_dma.o(.text)
    DMA_Cmd                                  0x0802ad3f   Thumb Code    22  stm32f2xx_dma.o(.text)
    DMA_PeriphIncOffsetSizeConfig            0x0802ad55   Thumb Code    22  stm32f2xx_dma.o(.text)
    DMA_FlowControllerConfig                 0x0802ad6b   Thumb Code    22  stm32f2xx_dma.o(.text)
    DMA_SetCurrDataCounter                   0x0802ad81   Thumb Code     4  stm32f2xx_dma.o(.text)
    DMA_GetCurrDataCounter                   0x0802ad85   Thumb Code     8  stm32f2xx_dma.o(.text)
    DMA_DoubleBufferModeConfig               0x0802ad8d   Thumb Code    24  stm32f2xx_dma.o(.text)
    DMA_DoubleBufferModeCmd                  0x0802ada5   Thumb Code    22  stm32f2xx_dma.o(.text)
    DMA_MemoryTargetConfig                   0x0802adbb   Thumb Code    10  stm32f2xx_dma.o(.text)
    DMA_GetCurrentMemoryTarget               0x0802adc5   Thumb Code    26  stm32f2xx_dma.o(.text)
    DMA_GetCmdStatus                         0x0802addf   Thumb Code    26  stm32f2xx_dma.o(.text)
    DMA_GetFIFOStatus                        0x0802adf9   Thumb Code    14  stm32f2xx_dma.o(.text)
    DMA_GetFlagStatus                        0x0802ae07   Thumb Code    58  stm32f2xx_dma.o(.text)
    DMA_ClearFlag                            0x0802ae41   Thumb Code    40  stm32f2xx_dma.o(.text)
    DMA_ITConfig                             0x0802ae69   Thumb Code    62  stm32f2xx_dma.o(.text)
    DMA_GetITStatus                          0x0802aea7   Thumb Code    88  stm32f2xx_dma.o(.text)
    DMA_ClearITPendingBit                    0x0802aeff   Thumb Code    40  stm32f2xx_dma.o(.text)
    FLASH_SetLatency                         0x0802af59   Thumb Code     6  stm32f2xx_flash.o(.text)
    FLASH_PrefetchBufferCmd                  0x0802af5f   Thumb Code    30  stm32f2xx_flash.o(.text)
    FLASH_InstructionCacheCmd                0x0802af7d   Thumb Code    30  stm32f2xx_flash.o(.text)
    FLASH_DataCacheCmd                       0x0802af9b   Thumb Code    30  stm32f2xx_flash.o(.text)
    FLASH_InstructionCacheReset              0x0802afb9   Thumb Code    14  stm32f2xx_flash.o(.text)
    FLASH_DataCacheReset                     0x0802afc7   Thumb Code    14  stm32f2xx_flash.o(.text)
    FLASH_Unlock                             0x0802afd5   Thumb Code    24  stm32f2xx_flash.o(.text)
    FLASH_Lock                               0x0802afed   Thumb Code    14  stm32f2xx_flash.o(.text)
    FLASH_GetStatus                          0x0802affb   Thumb Code    78  stm32f2xx_flash.o(.text)
    FLASH_WaitForLastOperation               0x0802b049   Thumb Code    28  stm32f2xx_flash.o(.text)
    FLASH_EraseSector                        0x0802b065   Thumb Code   142  stm32f2xx_flash.o(.text)
    FLASH_EraseAllSectors                    0x0802b0f3   Thumb Code   114  stm32f2xx_flash.o(.text)
    FLASH_ProgramDoubleWord                  0x0802b165   Thumb Code    80  stm32f2xx_flash.o(.text)
    FLASH_ProgramWord                        0x0802b1b5   Thumb Code    76  stm32f2xx_flash.o(.text)
    FLASH_ProgramHalfWord                    0x0802b201   Thumb Code    76  stm32f2xx_flash.o(.text)
    FLASH_ProgramByte                        0x0802b24d   Thumb Code    72  stm32f2xx_flash.o(.text)
    FLASH_OB_Unlock                          0x0802b295   Thumb Code    24  stm32f2xx_flash.o(.text)
    FLASH_OB_Lock                            0x0802b2ad   Thumb Code    14  stm32f2xx_flash.o(.text)
    FLASH_OB_WRPConfig                       0x0802b2bb   Thumb Code    52  stm32f2xx_flash.o(.text)
    FLASH_OB_RDPConfig                       0x0802b2ef   Thumb Code    24  stm32f2xx_flash.o(.text)
    FLASH_OB_UserConfig                      0x0802b307   Thumb Code   102  stm32f2xx_flash.o(.text)
    FLASH_OB_BORConfig                       0x0802b36d   Thumb Code    24  stm32f2xx_flash.o(.text)
    FLASH_OB_Launch                          0x0802b385   Thumb Code    28  stm32f2xx_flash.o(.text)
    FLASH_OB_GetUser                         0x0802b3a1   Thumb Code    10  stm32f2xx_flash.o(.text)
    FLASH_OB_GetWRP                          0x0802b3ab   Thumb Code     8  stm32f2xx_flash.o(.text)
    FLASH_OB_GetRDP                          0x0802b3b3   Thumb Code    24  stm32f2xx_flash.o(.text)
    FLASH_OB_GetBOR                          0x0802b3cb   Thumb Code    10  stm32f2xx_flash.o(.text)
    FLASH_ITConfig                           0x0802b3d5   Thumb Code    30  stm32f2xx_flash.o(.text)
    FLASH_GetFlagStatus                      0x0802b3f3   Thumb Code    26  stm32f2xx_flash.o(.text)
    FLASH_ClearFlag                          0x0802b40d   Thumb Code     6  stm32f2xx_flash.o(.text)
    GPIO_DeInit                              0x0802b425   Thumb Code   220  stm32f2xx_gpio.o(.text)
    GPIO_Init                                0x0802b501   Thumb Code   202  stm32f2xx_gpio.o(.text)
    GPIO_StructInit                          0x0802b5cb   Thumb Code    20  stm32f2xx_gpio.o(.text)
    GPIO_PinLockConfig                       0x0802b5df   Thumb Code    20  stm32f2xx_gpio.o(.text)
    GPIO_ReadInputDataBit                    0x0802b5f3   Thumb Code    24  stm32f2xx_gpio.o(.text)
    GPIO_ReadInputData                       0x0802b60b   Thumb Code     8  stm32f2xx_gpio.o(.text)
    GPIO_ReadOutputDataBit                   0x0802b613   Thumb Code    24  stm32f2xx_gpio.o(.text)
    GPIO_ReadOutputData                      0x0802b62b   Thumb Code     8  stm32f2xx_gpio.o(.text)
    GPIO_SetBits                             0x0802b633   Thumb Code     4  stm32f2xx_gpio.o(.text)
    GPIO_ResetBits                           0x0802b637   Thumb Code     4  stm32f2xx_gpio.o(.text)
    GPIO_WriteBit                            0x0802b63b   Thumb Code    10  stm32f2xx_gpio.o(.text)
    GPIO_Write                               0x0802b645   Thumb Code     4  stm32f2xx_gpio.o(.text)
    GPIO_ToggleBits                          0x0802b649   Thumb Code    10  stm32f2xx_gpio.o(.text)
    GPIO_PinAFConfig                         0x0802b653   Thumb Code    94  stm32f2xx_gpio.o(.text)
    I2C_DeInit                               0x0802b6d5   Thumb Code    82  stm32f2xx_i2c.o(.text)
    I2C_Init                                 0x0802b727   Thumb Code   246  stm32f2xx_i2c.o(.text)
    I2C_StructInit                           0x0802b81d   Thumb Code    34  stm32f2xx_i2c.o(.text)
    I2C_Cmd                                  0x0802b83f   Thumb Code    26  stm32f2xx_i2c.o(.text)
    I2C_GenerateSTART                        0x0802b859   Thumb Code    26  stm32f2xx_i2c.o(.text)
    I2C_GenerateSTOP                         0x0802b873   Thumb Code    26  stm32f2xx_i2c.o(.text)
    I2C_Send7bitAddress                      0x0802b88d   Thumb Code    16  stm32f2xx_i2c.o(.text)
    I2C_AcknowledgeConfig                    0x0802b89d   Thumb Code    26  stm32f2xx_i2c.o(.text)
    I2C_OwnAddress2Config                    0x0802b8b7   Thumb Code    28  stm32f2xx_i2c.o(.text)
    I2C_DualAddressCmd                       0x0802b8d3   Thumb Code    26  stm32f2xx_i2c.o(.text)
    I2C_GeneralCallCmd                       0x0802b8ed   Thumb Code    26  stm32f2xx_i2c.o(.text)
    I2C_SoftwareResetCmd                     0x0802b907   Thumb Code    22  stm32f2xx_i2c.o(.text)
    I2C_StretchClockCmd                      0x0802b91d   Thumb Code    26  stm32f2xx_i2c.o(.text)
    I2C_FastModeDutyCycleConfig              0x0802b937   Thumb Code    30  stm32f2xx_i2c.o(.text)
    I2C_NACKPositionConfig                   0x0802b955   Thumb Code    30  stm32f2xx_i2c.o(.text)
    I2C_SMBusAlertConfig                     0x0802b973   Thumb Code    30  stm32f2xx_i2c.o(.text)
    I2C_ARPCmd                               0x0802b991   Thumb Code    26  stm32f2xx_i2c.o(.text)
    I2C_SendData                             0x0802b9ab   Thumb Code     4  stm32f2xx_i2c.o(.text)
    I2C_ReceiveData                          0x0802b9af   Thumb Code     8  stm32f2xx_i2c.o(.text)
    I2C_TransmitPEC                          0x0802b9b7   Thumb Code    26  stm32f2xx_i2c.o(.text)
    I2C_PECPositionConfig                    0x0802b9d1   Thumb Code    30  stm32f2xx_i2c.o(.text)
    I2C_CalculatePEC                         0x0802b9ef   Thumb Code    26  stm32f2xx_i2c.o(.text)
    I2C_GetPEC                               0x0802ba09   Thumb Code    10  stm32f2xx_i2c.o(.text)
    I2C_DMACmd                               0x0802ba13   Thumb Code    26  stm32f2xx_i2c.o(.text)
    I2C_DMALastTransferCmd                   0x0802ba2d   Thumb Code    26  stm32f2xx_i2c.o(.text)
    I2C_ReadRegister                         0x0802ba47   Thumb Code    14  stm32f2xx_i2c.o(.text)
    I2C_ITConfig                             0x0802ba55   Thumb Code    30  stm32f2xx_i2c.o(.text)
    I2C_CheckEvent                           0x0802ba73   Thumb Code    50  stm32f2xx_i2c.o(.text)
    I2C_GetLastEvent                         0x0802baa5   Thumb Code    56  stm32f2xx_i2c.o(.text)
    I2C_GetFlagStatus                        0x0802badd   Thumb Code    56  stm32f2xx_i2c.o(.text)
    I2C_ClearFlag                            0x0802bb15   Thumb Code    16  stm32f2xx_i2c.o(.text)
    I2C_GetITStatus                          0x0802bb25   Thumb Code    44  stm32f2xx_i2c.o(.text)
    I2C_ClearITPendingBit                    0x0802bb51   Thumb Code    16  stm32f2xx_i2c.o(.text)
    RCC_DeInit                               0x0802bb61   Thumb Code    64  stm32f2xx_rcc.o(.text)
    RCC_HSEConfig                            0x0802bba1   Thumb Code    14  stm32f2xx_rcc.o(.text)
    RCC_GetFlagStatus                        0x0802bbaf   Thumb Code    68  stm32f2xx_rcc.o(.text)
    RCC_WaitForHSEStartUp                    0x0802bbf3   Thumb Code    56  stm32f2xx_rcc.o(.text)
    RCC_AdjustHSICalibrationValue            0x0802bc2b   Thumb Code    22  stm32f2xx_rcc.o(.text)
    RCC_HSICmd                               0x0802bc41   Thumb Code     6  stm32f2xx_rcc.o(.text)
    RCC_LSEConfig                            0x0802bc47   Thumb Code    46  stm32f2xx_rcc.o(.text)
    RCC_LSICmd                               0x0802bc75   Thumb Code     6  stm32f2xx_rcc.o(.text)
    RCC_PLLConfig                            0x0802bc7b   Thumb Code    34  stm32f2xx_rcc.o(.text)
    RCC_PLLCmd                               0x0802bc9d   Thumb Code     6  stm32f2xx_rcc.o(.text)
    RCC_PLLI2SConfig                         0x0802bca3   Thumb Code    14  stm32f2xx_rcc.o(.text)
    RCC_PLLI2SCmd                            0x0802bcb1   Thumb Code     6  stm32f2xx_rcc.o(.text)
    RCC_ClockSecuritySystemCmd               0x0802bcb7   Thumb Code     6  stm32f2xx_rcc.o(.text)
    RCC_MCO1Config                           0x0802bcbd   Thumb Code    28  stm32f2xx_rcc.o(.text)
    RCC_MCO2Config                           0x0802bcd9   Thumb Code    28  stm32f2xx_rcc.o(.text)
    RCC_SYSCLKConfig                         0x0802bcf5   Thumb Code    22  stm32f2xx_rcc.o(.text)
    RCC_GetSYSCLKSource                      0x0802bd0b   Thumb Code    10  stm32f2xx_rcc.o(.text)
    RCC_HCLKConfig                           0x0802bd15   Thumb Code    22  stm32f2xx_rcc.o(.text)
    RCC_PCLK1Config                          0x0802bd2b   Thumb Code    22  stm32f2xx_rcc.o(.text)
    RCC_PCLK2Config                          0x0802bd41   Thumb Code    22  stm32f2xx_rcc.o(.text)
    RCC_GetClocksFreq                        0x0802bd57   Thumb Code   222  stm32f2xx_rcc.o(.text)
    RCC_RTCCLKConfig                         0x0802be35   Thumb Code    54  stm32f2xx_rcc.o(.text)
    RCC_RTCCLKCmd                            0x0802be6b   Thumb Code     6  stm32f2xx_rcc.o(.text)
    RCC_BackupResetCmd                       0x0802be71   Thumb Code     6  stm32f2xx_rcc.o(.text)
    RCC_I2SCLKConfig                         0x0802be77   Thumb Code     6  stm32f2xx_rcc.o(.text)
    RCC_AHB1PeriphClockCmd                   0x0802be7d   Thumb Code    30  stm32f2xx_rcc.o(.text)
    RCC_AHB2PeriphClockCmd                   0x0802be9b   Thumb Code    30  stm32f2xx_rcc.o(.text)
    RCC_AHB3PeriphClockCmd                   0x0802beb9   Thumb Code    30  stm32f2xx_rcc.o(.text)
    RCC_APB1PeriphClockCmd                   0x0802bed7   Thumb Code    30  stm32f2xx_rcc.o(.text)
    RCC_APB2PeriphClockCmd                   0x0802bef5   Thumb Code    30  stm32f2xx_rcc.o(.text)
    RCC_AHB1PeriphResetCmd                   0x0802bf13   Thumb Code    30  stm32f2xx_rcc.o(.text)
    RCC_AHB2PeriphResetCmd                   0x0802bf31   Thumb Code   136  stm32f2xx_rcc.o(.text)
    RCC_AHB3PeriphResetCmd                   0x0802bfb9   Thumb Code    30  stm32f2xx_rcc.o(.text)
    RCC_APB1PeriphResetCmd                   0x0802bfd7   Thumb Code    30  stm32f2xx_rcc.o(.text)
    RCC_APB2PeriphResetCmd                   0x0802bff5   Thumb Code    30  stm32f2xx_rcc.o(.text)
    RCC_AHB1PeriphClockLPModeCmd             0x0802c013   Thumb Code    30  stm32f2xx_rcc.o(.text)
    RCC_AHB2PeriphClockLPModeCmd             0x0802c031   Thumb Code    30  stm32f2xx_rcc.o(.text)
    RCC_AHB3PeriphClockLPModeCmd             0x0802c04f   Thumb Code    30  stm32f2xx_rcc.o(.text)
    RCC_APB1PeriphClockLPModeCmd             0x0802c06d   Thumb Code    30  stm32f2xx_rcc.o(.text)
    RCC_APB2PeriphClockLPModeCmd             0x0802c08b   Thumb Code    30  stm32f2xx_rcc.o(.text)
    RCC_ITConfig                             0x0802c0a9   Thumb Code    36  stm32f2xx_rcc.o(.text)
    RCC_ClearFlag                            0x0802c0cd   Thumb Code    14  stm32f2xx_rcc.o(.text)
    RCC_GetITStatus                          0x0802c0db   Thumb Code    26  stm32f2xx_rcc.o(.text)
    RCC_ClearITPendingBit                    0x0802c0f5   Thumb Code     6  stm32f2xx_rcc.o(.text)
    SPI_I2S_DeInit                           0x0802c131   Thumb Code    76  stm32f2xx_spi.o(.text)
    SPI_Init                                 0x0802c17d   Thumb Code    80  stm32f2xx_spi.o(.text)
    I2S_Init                                 0x0802c1cd   Thumb Code   292  stm32f2xx_spi.o(.text)
    SPI_StructInit                           0x0802c2f1   Thumb Code    28  stm32f2xx_spi.o(.text)
    I2S_StructInit                           0x0802c30d   Thumb Code    26  stm32f2xx_spi.o(.text)
    SPI_Cmd                                  0x0802c327   Thumb Code    26  stm32f2xx_spi.o(.text)
    I2S_Cmd                                  0x0802c341   Thumb Code    26  stm32f2xx_spi.o(.text)
    SPI_DataSizeConfig                       0x0802c35b   Thumb Code    22  stm32f2xx_spi.o(.text)
    SPI_BiDirectionalLineConfig              0x0802c371   Thumb Code    30  stm32f2xx_spi.o(.text)
    SPI_NSSInternalSoftwareConfig            0x0802c38f   Thumb Code    32  stm32f2xx_spi.o(.text)
    SPI_SSOutputCmd                          0x0802c3af   Thumb Code    26  stm32f2xx_spi.o(.text)
    SPI_TIModeCmd                            0x0802c3c9   Thumb Code    26  stm32f2xx_spi.o(.text)
    SPI_I2S_ReceiveData                      0x0802c3e3   Thumb Code     6  stm32f2xx_spi.o(.text)
    SPI_I2S_SendData                         0x0802c3e9   Thumb Code     4  stm32f2xx_spi.o(.text)
    SPI_CalculateCRC                         0x0802c3ed   Thumb Code    26  stm32f2xx_spi.o(.text)
    SPI_TransmitCRC                          0x0802c407   Thumb Code    10  stm32f2xx_spi.o(.text)
    SPI_GetCRC                               0x0802c411   Thumb Code    18  stm32f2xx_spi.o(.text)
    SPI_GetCRCPolynomial                     0x0802c423   Thumb Code     6  stm32f2xx_spi.o(.text)
    SPI_I2S_DMACmd                           0x0802c429   Thumb Code    30  stm32f2xx_spi.o(.text)
    SPI_I2S_ITConfig                         0x0802c447   Thumb Code    50  stm32f2xx_spi.o(.text)
    SPI_I2S_GetFlagStatus                    0x0802c479   Thumb Code    24  stm32f2xx_spi.o(.text)
    SPI_I2S_ClearFlag                        0x0802c491   Thumb Code     8  stm32f2xx_spi.o(.text)
    SPI_I2S_GetITStatus                      0x0802c499   Thumb Code    68  stm32f2xx_spi.o(.text)
    SPI_I2S_ClearITPendingBit                0x0802c4dd   Thumb Code    28  stm32f2xx_spi.o(.text)
    SYSCFG_DeInit                            0x0802c50d   Thumb Code    22  stm32f2xx_syscfg.o(.text)
    SYSCFG_MemoryRemapConfig                 0x0802c523   Thumb Code     6  stm32f2xx_syscfg.o(.text)
    SYSCFG_EXTILineConfig                    0x0802c529   Thumb Code    84  stm32f2xx_syscfg.o(.text)
    SYSCFG_ETH_MediaInterfaceConfig          0x0802c57d   Thumb Code     6  stm32f2xx_syscfg.o(.text)
    SYSCFG_CompensationCellCmd               0x0802c583   Thumb Code     6  stm32f2xx_syscfg.o(.text)
    SYSCFG_GetCompensationCellStatus         0x0802c589   Thumb Code    26  stm32f2xx_syscfg.o(.text)
    report_error                             0x0802c5b9   Thumb Code     6  process_net.o(.text)
    read_local_info                          0x0802c5bf   Thumb Code    34  process_net.o(.text)
    pis_pack_data                            0x0802c5e1   Thumb Code    78  process_net.o(.text)
    send_ProcessData                         0x0802c62f   Thumb Code     2  process_net.o(.text)
    send_ProcessData_ledScreen               0x0802c631   Thumb Code    92  process_net.o(.text)
    send_ip_mac_id                           0x0802c68d   Thumb Code    76  process_net.o(.text)
    send_ip_mac_id_ledScreen                 0x0802c6d9   Thumb Code    76  process_net.o(.text)
    send_softwareVersion                     0x0802c725   Thumb Code    80  process_net.o(.text)
    send_softwareVersion_ledScreen           0x0802c775   Thumb Code    74  process_net.o(.text)
    udp_CtrlMsg_send_process                 0x0802c7bf   Thumb Code    56  process_net.o(.text)
    check_dst_is_self                        0x0802c7f7   Thumb Code    36  process_net.o(.text)
    check_dst_is_AllSameType                 0x0802c81b   Thumb Code    36  process_net.o(.text)
    respond_Ctrl_KEYWORD_ProcessData         0x0802c83f   Thumb Code   242  process_net.o(.text)
    respond_Ctrl_KEYWORD_ProcessData_ledscreen 0x0802c931   Thumb Code   310  process_net.o(.text)
    respond_Get_KEYWORD_softwareVersion      0x0802ca67   Thumb Code    26  process_net.o(.text)
    respond_Get_KEYWORD_softwareVersion_ledscreen 0x0802ca81   Thumb Code    26  process_net.o(.text)
    respond_Get_KEYWORD_ip_mac_id            0x0802ca9b   Thumb Code    26  process_net.o(.text)
    respond_Get_KEYWORD_ip_mac_id_ledscreen  0x0802cab5   Thumb Code    26  process_net.o(.text)
    respond_Set_KEYWORD_mac                  0x0802cacf   Thumb Code   112  process_net.o(.text)
    respond_Set_KEYWORD_mac_ledscreen        0x0802cb3f   Thumb Code   142  process_net.o(.text)
    respond_Set_KEYWORD_IP                   0x0802cbcd   Thumb Code    50  process_net.o(.text)
    respond_Set_KEYWORD_IP_ledscreen         0x0802cbff   Thumb Code    98  process_net.o(.text)
    reset_TAG_Disp_Info                      0x0802cc61   Thumb Code    34  process_net.o(.text)
    reset_TAG_protocol_Disp_Info             0x0802cc83   Thumb Code    32  process_net.o(.text)
    clr_dispinfo                             0x0802cca3   Thumb Code    22  process_net.o(.text)
    prc_set_roll_speed                       0x0802ccb9   Thumb Code    38  process_net.o(.text)
    prc_set_brightness                       0x0802ccdf   Thumb Code    46  process_net.o(.text)
    ptu_set_mode                             0x0802cd0d   Thumb Code   142  process_net.o(.text)
    prc_down_content                         0x0802cd9b   Thumb Code   476  process_net.o(.text)
    udp_CtrlMsg_receive_process              0x0802cf77   Thumb Code    62  process_net.o(.text)
    respond_CMD_TEST_debug                   0x0802cfb5   Thumb Code    20  process_net.o(.text)
    respond_CMD_TEST_run_iap                 0x0802cfc9   Thumb Code    14  process_net.o(.text)
    respond_CMD_TEST_download_app            0x0802cfd7   Thumb Code    46  process_net.o(.text)
    respond_CMD_TEST_set_dispMode            0x0802d005   Thumb Code   124  process_net.o(.text)
    UdpTestReceiveProcess                    0x0802d081   Thumb Code   208  process_net.o(.text)
    udpTest_send_process                     0x0802d151   Thumb Code    66  process_net.o(.text)
    udpTest_send_download_app                0x0802d193   Thumb Code   162  process_net.o(.text)
    udpTest_send_run_iap                     0x0802d235   Thumb Code   100  process_net.o(.text)
    udpTest_send_set_dispMode                0x0802d299   Thumb Code   100  process_net.o(.text)
    screen_roll                              0x0802d32d   Thumb Code   628  process_ledscreen.o(.text)
    Vertical_8_16_to_dispbuf                 0x0802d5a1   Thumb Code    84  process_ledscreen.o(.text)
    Vertical_16_16_to_dispbuf                0x0802d5f5   Thumb Code    84  process_ledscreen.o(.text)
    static_test_fill_ledbuf                  0x0802d649   Thumb Code    94  process_ledscreen.o(.text)
    test_fill_ledbuf                         0x0802d6a7   Thumb Code   456  process_ledscreen.o(.text)
    clr_led_buf                              0x0802d86f   Thumb Code    96  process_ledscreen.o(.text)
    turn_off_screen_clrbuf                   0x0802d8cf   Thumb Code    18  process_ledscreen.o(.text)
    turn_off_screen                          0x0802d8e1   Thumb Code    14  process_ledscreen.o(.text)
    ledscreen_init                           0x0802d8ef   Thumb Code    12  process_ledscreen.o(.text)
    set_dispmode_SCREEN_MODE_softwareVersion 0x0802d8fb   Thumb Code    52  process_ledscreen.o(.text)
    dispcall_SCREEN_MODE_softwareVersion     0x0802d92f   Thumb Code   104  process_ledscreen.o(.text)
    set_dispmode_SCREEN_MODE_test            0x0802d997   Thumb Code    18  process_ledscreen.o(.text)
    dispcall_SCREEN_MODE_test                0x0802d9a9   Thumb Code   140  process_ledscreen.o(.text)
    set_dispmode_SCREEN_MODE_static_test     0x0802da35   Thumb Code    18  process_ledscreen.o(.text)
    set_dispmode_SCREEN_MODE_off             0x0802da47   Thumb Code    18  process_ledscreen.o(.text)
    set_dispmode_SCREEN_MODE_stationID       0x0802da59   Thumb Code    18  process_ledscreen.o(.text)
    dispcall_SCREEN_MODE_off                 0x0802da6b   Thumb Code    16  process_ledscreen.o(.text)
    callback_SCREEN_MODE_stationID_m2        0x0802da7b   Thumb Code   494  process_ledscreen.o(.text)
    callback_SCREEN_MODE_stationID_m1        0x0802dc69   Thumb Code   220  process_ledscreen.o(.text)
    dispcall_SCREEN_MODE_stationID           0x0802dd45   Thumb Code    76  process_ledscreen.o(.text)
    dispcall_SCREEN_MODE_static_test         0x0802dd91   Thumb Code    20  process_ledscreen.o(.text)
    set_dispmode                             0x0802dda5   Thumb Code    54  process_ledscreen.o(.text)
    LedScreen_process                        0x0802dddb   Thumb Code   160  process_ledscreen.o(.text)
    FLASH_If_Init                            0x0802dfa5   Thumb Code    18  flash_if.o(.text)
    FLASH_If_Write                           0x0802dfb7   Thumb Code   102  flash_if.o(.text)
    FLASH_If_AddrSectorErease                0x0802e01d   Thumb Code   114  flash_if.o(.text)
    FLASH_If_write_flash                     0x0802e08f   Thumb Code   164  flash_if.o(.text)
    FLASH_If_set_flash                       0x0802e133   Thumb Code   156  flash_if.o(.text)
    FLASH_If_Erase_Application_sectors       0x0802e1cf   Thumb Code   132  flash_if.o(.text)
    check_prog_flag                          0x0802e253   Thumb Code    24  flash_if.o(.text)
    clr_prog_flag                            0x0802e26b   Thumb Code    58  flash_if.o(.text)
    set_prog_flag                            0x0802e2a5   Thumb Code    86  flash_if.o(.text)
    app_to_iap_init                          0x0802e2fb   Thumb Code     8  flash_if.o(.text)
    iap_to_app_init                          0x0802e303   Thumb Code     8  flash_if.o(.text)
    run_app                                  0x0802e30b   Thumb Code     2  flash_if.o(.text)
    run_iap_prog                             0x0802e30d   Thumb Code    78  flash_if.o(.text)
    flash_pro_test                           0x0802e35b   Thumb Code     2  flash_if.o(.text)
    Check_And_RunAPP                         0x0802e35d   Thumb Code    44  flash_if.o(.text)
    App_SetVectorTable                       0x0802e389   Thumb Code    14  flash_if.o(.text)
    tftp_err_to_str                          0x0802e3ad   Thumb Code    22  tftp_cli.o(.text)
    UdpSend                                  0x0802e3c3   Thumb Code   100  tftp_cli.o(.text)
    tftp_send_rrq                            0x0802e427   Thumb Code   172  tftp_cli.o(.text)
    tftp_send_ack                            0x0802e4d3   Thumb Code    64  tftp_cli.o(.text)
    erase_app                                0x0802e513   Thumb Code    32  tftp_cli.o(.text)
    FLASH_If_Write_tftp_cli                  0x0802e533   Thumb Code    44  tftp_cli.o(.text)
    tftp_cli_clearup_r                       0x0802e55f   Thumb Code    22  tftp_cli.o(.text)
    check_UDPpcb_tftp                        0x0802e575   Thumb Code    14  tftp_cli.o(.text)
    tftp_cli_timeout_set                     0x0802e583   Thumb Code    10  tftp_cli.o(.text)
    tftp_cli_timeout_process                 0x0802e58d   Thumb Code   122  tftp_cli.o(.text)
    tftp_connect                             0x0802e76d   Thumb Code   202  tftp_cli.o(.text)
    tftp_check_param                         0x0802e837   Thumb Code    98  tftp_cli.o(.text)
    tftp_cli_start                           0x0802e899   Thumb Code   104  tftp_cli.o(.text)
    malloc                                   0x0802e921   Thumb Code    94  h1_alloc.o(.text)
    free                                     0x0802e97f   Thumb Code    78  h1_free.o(.text)
    __2sprintf                               0x0802e9cd   Thumb Code    34  noretval__2sprintf.o(.text)
    _printf_pre_padding                      0x0802e9f5   Thumb Code    46  _printf_pad.o(.text)
    _printf_post_padding                     0x0802ea23   Thumb Code    36  _printf_pad.o(.text)
    _printf_str                              0x0802ea47   Thumb Code    82  _printf_str.o(.text)
    _printf_int_dec                          0x0802ea99   Thumb Code   102  _printf_dec.o(.text)
    _printf_int_hex                          0x0802eb11   Thumb Code    88  _printf_hex_int.o(.text)
    _printf_longlong_hex                     0x0802eb11   Thumb Code     0  _printf_hex_int.o(.text)
    __printf                                 0x0802eb6d   Thumb Code   310  __printf_flags_wp.o(.text)
    memcmp                                   0x0802eca9   Thumb Code    88  memcmp.o(.text)
    strlen                                   0x0802ed01   Thumb Code    62  strlen.o(.text)
    strncmp                                  0x0802ed3f   Thumb Code   150  strncmp.o(.text)
    strcat                                   0x0802edd5   Thumb Code    24  strcat.o(.text)
    __aeabi_memcpy                           0x0802eded   Thumb Code     0  rt_memcpy_v6.o(.text)
    __rt_memcpy                              0x0802eded   Thumb Code   138  rt_memcpy_v6.o(.text)
    _memcpy_lastbytes                        0x0802ee53   Thumb Code     0  rt_memcpy_v6.o(.text)
    __aeabi_memcpy4                          0x0802ee77   Thumb Code     0  rt_memcpy_w.o(.text)
    __aeabi_memcpy8                          0x0802ee77   Thumb Code     0  rt_memcpy_w.o(.text)
    __rt_memcpy_w                            0x0802ee77   Thumb Code   100  rt_memcpy_w.o(.text)
    _memcpy_lastbytes_aligned                0x0802eebf   Thumb Code     0  rt_memcpy_w.o(.text)
    __aeabi_memset                           0x0802eedb   Thumb Code    16  aeabi_memset.o(.text)
    __aeabi_memclr                           0x0802eeeb   Thumb Code     0  rt_memclr.o(.text)
    __rt_memclr                              0x0802eeeb   Thumb Code    68  rt_memclr.o(.text)
    _memset                                  0x0802eeef   Thumb Code     0  rt_memclr.o(.text)
    __aeabi_memclr4                          0x0802ef2f   Thumb Code     0  rt_memclr_w.o(.text)
    __aeabi_memclr8                          0x0802ef2f   Thumb Code     0  rt_memclr_w.o(.text)
    __rt_memclr_w                            0x0802ef2f   Thumb Code    78  rt_memclr_w.o(.text)
    _memset_w                                0x0802ef33   Thumb Code     0  rt_memclr_w.o(.text)
    strcmp                                   0x0802ef7d   Thumb Code   128  strcmpv7m.o(.text)
    __use_two_region_memory                  0x0802effd   Thumb Code     2  heapauxi.o(.text)
    __rt_heap_escrow                         0x0802efff   Thumb Code     2  heapauxi.o(.text)
    __rt_heap_expand                         0x0802f001   Thumb Code     2  heapauxi.o(.text)
    __rt_heap_descriptor                     0x0802f005   Thumb Code     8  rt_heap_descriptor_intlibspace.o(.text)
    __use_no_heap                            0x0802f00d   Thumb Code     2  hguard.o(.text)
    __heap$guard                             0x0802f00f   Thumb Code     2  hguard.o(.text)
    _terminate_user_alloc                    0x0802f011   Thumb Code     2  init_alloc.o(.text)
    _init_user_alloc                         0x0802f013   Thumb Code     2  init_alloc.o(.text)
    __Heap_Full                              0x0802f015   Thumb Code    34  init_alloc.o(.text)
    __Heap_Broken                            0x0802f037   Thumb Code     6  init_alloc.o(.text)
    _init_alloc                              0x0802f03d   Thumb Code    94  init_alloc.o(.text)
    __Heap_Initialize                        0x0802f09b   Thumb Code    10  h1_init.o(.text)
    __Heap_DescSize                          0x0802f0a5   Thumb Code     4  h1_init.o(.text)
    _printf_int_common                       0x0802f0a9   Thumb Code   184  _printf_intcommon.o(.text)
    _printf_char_common                      0x0802f16b   Thumb Code    32  _printf_char_common.o(.text)
    _sputc                                   0x0802f191   Thumb Code    10  _sputc.o(.text)
    _printf_cs_common                        0x0802f19b   Thumb Code    20  _printf_char.o(.text)
    _printf_char                             0x0802f1af   Thumb Code    16  _printf_char.o(.text)
    _printf_string                           0x0802f1bf   Thumb Code     8  _printf_char.o(.text)
    __user_libspace                          0x0802f1c9   Thumb Code     8  libspace.o(.text)
    __user_perproc_libspace                  0x0802f1c9   Thumb Code     0  libspace.o(.text)
    __user_perthread_libspace                0x0802f1c9   Thumb Code     0  libspace.o(.text)
    __Heap_ProvideMemory                     0x0802f1d1   Thumb Code    52  h1_extend.o(.text)
    __rt_SIGRTMEM                            0x0802f205   Thumb Code    14  defsig_rtmem_outer.o(.text)
    __I$use$semihosting                      0x0802f213   Thumb Code     0  use_no_semi.o(.text)
    __use_no_semihosting_swi                 0x0802f213   Thumb Code     2  use_no_semi.o(.text)
    __semihosting_library_function           0x0802f215   Thumb Code     0  indicate_semi.o(.text)
    __user_setup_stackheap                   0x0802f215   Thumb Code    74  sys_stackheap_outer.o(.text)
    exit                                     0x0802f25f   Thumb Code    12  exit.o(.text)
    __sig_exit                               0x0802f26b   Thumb Code    10  defsig_exit.o(.text)
    __rt_SIGRTMEM_inner                      0x0802f275   Thumb Code    22  defsig_rtmem_inner.o(.text)
    _sys_exit                                0x0802f2c5   Thumb Code     8  sys_exit.o(.text)
    __default_signal_display                 0x0802f2d1   Thumb Code    50  defsig_general.o(.text)
    _ttywrch                                 0x0802f303   Thumb Code    14  sys_wrch.o(.text)
    __rt_fp_status_addr                      0x0802f311   Thumb Code     8  rt_fp_status_addr_intlibspace.o(.text)
    _is_digit                                0x0802f319   Thumb Code    14  __printf_wp.o(i._is_digit)
    _fp_init                                 0x0802f327   Thumb Code    14  fpinit.o(x$fpl$fpinit)
    __fplib_config_pureend_doubles           0x0802f333   Thumb Code     0  fpinit.o(x$fpl$fpinit)
    led_row_select                           0x0802f334   Data          34  hc595.o(.constdata)
    head_buf                                 0x0802f5a8   Data          45  myhttpd.o(.constdata)
    frame_info                               0x0802f5d5   Data         150  myhttpd.o(.constdata)
    frame_set                                0x0802f66b   Data         192  myhttpd.o(.constdata)
    left                                     0x0802f72b   Data         243  myhttpd.o(.constdata)
    log_err                                  0x0802f81e   Data         308  myhttpd.o(.constdata)
    login                                    0x0802f952   Data         386  myhttpd.o(.constdata)
    mode_sel                                 0x0802fad4   Data         671  myhttpd.o(.constdata)
    update_sw                                0x0802fd73   Data         441  myhttpd.o(.constdata)
    updating                                 0x0802ff2c   Data         247  myhttpd.o(.constdata)
    tcp_backoff                              0x0803049a   Data          13  tcp.o(.constdata)
    tcp_persist_backoff                      0x080304a7   Data           7  tcp.o(.constdata)
    ip_addr_any                              0x080304ae   Data           4  ip_addr.o(.constdata)
    ip_addr_broadcast                        0x080304b2   Data           4  ip_addr.o(.constdata)
    ethbroadcast                             0x080304b6   Data           6  etharp.o(.constdata)
    ethzero                                  0x080304bc   Data           6  etharp.o(.constdata)
    Evt_udp_CtrlMsg_send_Tbl_ledScreen       0x080304c4   Data          40  process_net.o(.constdata)
    Evt_udp_CtrlMsg_recv_Tbl                 0x080304ec   Data          56  process_net.o(.constdata)
    Evt_udp_CtrlMsg_recv_Tbl_ledScreen       0x08030524   Data          64  process_net.o(.constdata)
    Evt_udp_TEST_recv_Tbl                    0x08030564   Data          32  process_net.o(.constdata)
    Evt_udpTest_send_Tbl                     0x08030584   Data          32  process_net.o(.constdata)
    software_version                         0x080305a4   Data           4  process_ledscreen.o(.constdata)
    build_date_str                           0x080305a8   Data          12  process_ledscreen.o(.constdata)
    build_time_str                           0x080305b4   Data           9  process_ledscreen.o(.constdata)
    char_tbl                                 0x080305be   Data         304  process_ledscreen.o(.constdata)
    zimo                                     0x080306ee   Data        1216  process_ledscreen.o(.constdata)
    Software_Version_V10                     0x08030bae   Data         336  process_ledscreen.o(.constdata)
    device_name                              0x08030cfe   Data         384  process_ledscreen.o(.constdata)
    ceshizhong                               0x08030e7e   Data          96  process_ledscreen.o(.constdata)
    Region$$Table$$Base                      0x0803117c   Number         0  anon$$obj.o(Region$$Table)
    Region$$Table$$Limit                     0x0803119c   Number         0  anon$$obj.o(Region$$Table)
    timer_flag                               0x20000000   Data           1  main.o(.data)
    refresh_flag                             0x20000001   Data           1  main.o(.data)
    timer2_flag                              0x20000002   Data           1  main.o(.data)
    Debuger                                  0x20000010   Data           4  main.o(.data)
    test                                     0x20000014   Data           2  main.o(.data)
    timer3_flag                              0x20000016   Data           1  main.o(.data)
    blank_buf                                0x20000022   Data           6  hc595.o(.data)
    DevType                                  0x2000002c   Data           1  myapp.o(.data)
    DevId                                    0x2000002d   Data           1  myapp.o(.data)
    TrainId                                  0x2000002e   Data           2  myapp.o(.data)
    AppStartTimer                            0x20000030   Data           4  myapp.o(.data)
    AppStartFlag                             0x20000034   Data           4  myapp.o(.data)
    PlayLeftFifo                             0x20000038   Data           1  myaudio.o(.data)
    pPlayLeftFifo                            0x2000003c   Data           4  myaudio.o(.data)
    PlayLeftProduceIndex                     0x20000040   Data           4  myaudio.o(.data)
    PlayLeftConsumeIndex                     0x20000044   Data           4  myaudio.o(.data)
    PlayLeftWaitFlag                         0x20000048   Data           4  myaudio.o(.data)
    PlayRightFifo                            0x2000004c   Data           1  myaudio.o(.data)
    pPlayRightFifo                           0x20000050   Data           4  myaudio.o(.data)
    PlayRightProduceIndex                    0x20000054   Data           4  myaudio.o(.data)
    PlayRightConsumeIndex                    0x20000058   Data           4  myaudio.o(.data)
    PlayRightWaitFlag                        0x2000005c   Data           4  myaudio.o(.data)
    pListenLeftFifo                          0x20000060   Data           4  myaudio.o(.data)
    ListenLeftProduceIndex                   0x20000064   Data           4  myaudio.o(.data)
    ListenLeftConsumeIndex                   0x20000068   Data           4  myaudio.o(.data)
    pListenRightFifo                         0x2000006c   Data           4  myaudio.o(.data)
    ListenRightProduceIndex                  0x20000070   Data           4  myaudio.o(.data)
    ListenRightConsumeIndex                  0x20000074   Data           4  myaudio.o(.data)
    ListenFlag                               0x20000078   Data           4  myaudio.o(.data)
    ListenEnable                             0x2000007c   Data           4  myaudio.o(.data)
    AudioPlayInfo                            0x20000080   Data           8  myaudio.o(.data)
    AudioVolume                              0x20000088   Data           4  myaudio.o(.data)
    AudioTreble                              0x2000008c   Data           4  myaudio.o(.data)
    AudioBass                                0x20000090   Data           4  myaudio.o(.data)
    AudioFrontPlayFlag                       0x20000094   Data           4  myaudio.o(.data)
    AudioBackPlayFlag                        0x20000098   Data           4  myaudio.o(.data)
    PlayClock                                0x2000009c   Data           4  myaudio.o(.data)
    PlayClockSendFlag                        0x200000a0   Data           4  myaudio.o(.data)
    EthInitStatus                            0x200000a4   Data           4  myethernet.o(.data)
    EthLinkStatus                            0x200000a8   Data           1  myethernet.o(.data)
    run_iap_req                              0x200000ac   Data           1  myhttpd.o(.data)
    HttpTestAAA                              0x200000ad   Data         128  myhttpd.o(.data)
    HttpTestBBB                              0x2000012d   Data         128  myhttpd.o(.data)
    mode_description                         0x200001b0   Data          20  myhttpd.o(.data)
    dev_description                          0x200001c4   Data          12  myhttpd.o(.data)
    DmaPlayFlag                              0x200001d8   Data           4  myi2s.o(.data)
    AllBroadIpAddr                           0x200001e0   Data           4  mylwip.o(.data)
    pUdpTestRcvPcb                           0x200001e4   Data           4  mylwip.o(.data)
    pUdpTestSendPcb                          0x200001e8   Data           4  mylwip.o(.data)
    pUdpCommanderPcb                         0x200001ec   Data           4  mylwip.o(.data)
    pUdpControlRcvPcb                        0x200001f0   Data           4  mylwip.o(.data)
    pUdpControlSendPcb                       0x200001f4   Data           4  mylwip.o(.data)
    pUdpBroadcastRcvPcb                      0x200001f8   Data           4  mylwip.o(.data)
    pUdpBroadcastSendPcb                     0x200001fc   Data           4  mylwip.o(.data)
    pUdpTalkRcvPcb                           0x20000200   Data           4  mylwip.o(.data)
    pUdpTalkSendPcb                          0x20000204   Data           4  mylwip.o(.data)
    pUdpPlayclkRcvPcb                        0x20000208   Data           4  mylwip.o(.data)
    pUdpPlayclkSendPcb                       0x2000020c   Data           4  mylwip.o(.data)
    NetLocalMac                              0x20000210   Data           6  mynet.o(.data)
    NetLocalIp                               0x20000216   Data           4  mynet.o(.data)
    NetRouterIp                              0x2000021a   Data           4  mynet.o(.data)
    NetMaskIp                                0x2000021e   Data           4  mynet.o(.data)
    NetShowIp                                0x20000222   Data           4  mynet.o(.data)
    pNetReceiveBuf                           0x20000228   Data           4  mynet.o(.data)
    NetReceiveBufSize                        0x2000022c   Data           4  mynet.o(.data)
    pNetSendBuf                              0x20000230   Data           4  mynet.o(.data)
    NetSendBufSize                           0x20000234   Data           4  mynet.o(.data)
    NetStartingFlag                          0x20000238   Data           4  mynet.o(.data)
    NetListenSendFlag                        0x2000023c   Data           4  mynet.o(.data)
    ProtocolLocalInfo                        0x20000244   Data           8  myprotocol.o(.data)
    ProtocolBroadInfo                        0x2000024c   Data           8  myprotocol.o(.data)
    StorageInfoSaveFlag                      0x20000254   Data           4  mystorage.o(.data)
    MyTmCnt10                                0x20000258   Data           4  mytimer.o(.data)
    MyTmCnt20                                0x2000025c   Data           4  mytimer.o(.data)
    MyTmCnt50                                0x20000260   Data           4  mytimer.o(.data)
    MyTmCnt100                               0x20000264   Data           4  mytimer.o(.data)
    MyTmCnt500                               0x20000268   Data           4  mytimer.o(.data)
    MyTmCnt1000                              0x2000026c   Data           4  mytimer.o(.data)
    MyTmCnt2000                              0x20000270   Data           4  mytimer.o(.data)
    SystemCoreClock                          0x20000274   Data           4  system_stm32f2xx.o(.data)
    AHBPrescTable                            0x20000278   Data          16  system_stm32f2xx.o(.data)
    DMATxDescToSet                           0x20000288   Data           4  stm32f2x7_eth.o(.data)
    DMARxDescToGet                           0x2000028c   Data           4  stm32f2x7_eth.o(.data)
    DMA_RX_FRAME_infos                       0x20000290   Data           4  stm32f2x7_eth.o(.data)
    Frame_Rx_index                           0x20000294   Data           4  stm32f2x7_eth.o(.data)
    netif_list                               0x200002ac   Data           4  netif.o(.data)
    netif_default                            0x200002b0   Data           4  netif.o(.data)
    tcp_state_str                            0x200002b8   Data          44  tcp.o(.data)
    tcp_ticks                                0x200002ec   Data           4  tcp.o(.data)
    tcp_bound_pcbs                           0x200002f0   Data           4  tcp.o(.data)
    tcp_listen_pcbs                          0x200002f4   Data           4  tcp.o(.data)
    tcp_active_pcbs                          0x200002f8   Data           4  tcp.o(.data)
    tcp_tw_pcbs                              0x200002fc   Data           4  tcp.o(.data)
    tcp_tmp_pcb                              0x20000300   Data           4  tcp.o(.data)
    tcp_input_pcb                            0x20000324   Data           4  tcp_in.o(.data)
    udp_pcbs                                 0x20000328   Data           4  udp.o(.data)
    current_netif                            0x20000330   Data           4  ip.o(.data)
    current_header                           0x20000334   Data           4  ip.o(.data)
    dmp_process_data                         0x20000350   Data           3  process_net.o(.data)
    dmp_run_status                           0x20000353   Data           1  process_net.o(.data)
    hled_process_data                        0x20000354   Data           5  process_net.o(.data)
    Hled_run_status                          0x20000359   Data           1  process_net.o(.data)
    pack_len                                 0x2000035a   Data           2  process_net.o(.data)
    roll_col_sum_tmp                         0x2000035c   Data           2  process_ledscreen.o(.data)
    color_tmp                                0x2000035e   Data           1  process_ledscreen.o(.data)
    roll_col_num                             0x20000360   Data           2  process_ledscreen.o(.data)
    roll_speed                               0x20000362   Data           1  process_ledscreen.o(.data)
    brightness                               0x20000364   Data           2  process_ledscreen.o(.data)
    DISP_COL_TAIL                            0x20000366   Data           2  process_ledscreen.o(.data)
    DISP_COL_HEAD                            0x20000368   Data           2  process_ledscreen.o(.data)
    DIV                                      0x2000036a   Data           2  process_ledscreen.o(.data)
    FILL_COLsum_tail                         0x2000036c   Data           2  process_ledscreen.o(.data)
    FILL_COLsum_head                         0x2000036e   Data           2  process_ledscreen.o(.data)
    sel_screen_MODE                          0x20000370   Data          12  process_ledscreen.o(.data)
    SCREEN_MODE_stationID_SEL2_tbl           0x2000037c   Data          48  process_ledscreen.o(.data)
    screen_mode_disp_tbl                     0x200003ac   Data          48  process_ledscreen.o(.data)
    screen_mode_set_tbl                      0x200003dc   Data          48  process_ledscreen.o(.data)
    mode_index_tbl                           0x2000040c   Data           5  process_ledscreen.o(.data)
    ptu_SetMode                              0x20000411   Data           1  process_ledscreen.o(.data)
    Jump_To_Application                      0x20000418   Data           4  flash_if.o(.data)
    Jump_To_iapPROG                          0x2000041c   Data           4  flash_if.o(.data)
    JumpAddress                              0x20000420   Data           4  flash_if.o(.data)
    err_codes                                0x2000042c   Data          32  tftp_cli.o(.data)
    red_CN                                   0x20000460   Data         288  hc595.o(.bss)
    green_CN                                 0x20000580   Data         288  hc595.o(.bss)
    red_EN                                   0x200006a0   Data         144  hc595.o(.bss)
    green_EN                                 0x20000730   Data         144  hc595.o(.bss)
    ListenLeftFifo                           0x200007c0   Data        4096  myaudio.o(.bss)
    ListenRightFifo                          0x200017c0   Data        4096  myaudio.o(.bss)
    OutStr                                   0x200027c0   Data         256  mycommander.o(.bss)
    HttpTest                                 0x200028c0   Data        1024  myhttpd.o(.bss)
    str_tmp                                  0x20002cc0   Data        1024  myhttpd.o(.bss)
    DmaPlayMem0                              0x200030c0   Data        2048  myi2s.o(.bss)
    DmaPlayMem1                              0x200038c0   Data        2048  myi2s.o(.bss)
    DmaListenMem0                            0x200040c0   Data        2048  myi2s.o(.bss)
    DmaListenMem1                            0x200048c0   Data        2048  myi2s.o(.bss)
    Netif                                    0x200050c0   Data          52  mylwip.o(.bss)
    NetBuf                                   0x200050f4   Data        1280  mynet.o(.bss)
    StorageInfo                              0x200055f4   Data          24  mystorage.o(.bss)
    DMARxDscrTab                             0x2000560c   Data         160  stm32f2x7_eth.o(.bss)
    DMATxDscrTab                             0x200056ac   Data         160  stm32f2x7_eth.o(.bss)
    Rx_Buff                                  0x2000574c   Data        7620  stm32f2x7_eth.o(.bss)
    Tx_Buff                                  0x20007510   Data        7620  stm32f2x7_eth.o(.bss)
    RX_Frame_Descriptor                      0x200092d4   Data          12  stm32f2x7_eth.o(.bss)
    pack_data                                0x20012a08   Data        1156  process_net.o(.bss)
    netCNDispInfo                            0x20012e8c   Data        1030  process_net.o(.bss)
    netENDispInfo                            0x20013292   Data        1030  process_net.o(.bss)
    tmpProtocolDispInfo                      0x20013698   Data        1028  process_net.o(.bss)
    ledbuf_tmp1                              0x20013aa8   Data        6200  process_ledscreen.o(.bss)
    ledbuf_tmp                               0x200152e0   Data        6200  process_ledscreen.o(.bss)
    red_tmp                                  0x20016b18   Data         288  process_ledscreen.o(.bss)
    green_tmp                                0x20016c38   Data         288  process_ledscreen.o(.bss)
    disp_param_SCREEN_MODE_softwareVersion   0x20016d58   Data          10  process_ledscreen.o(.bss)
    tftp_conn_cli                            0x20016d64   Data         544  tftp_cli.o(.bss)
    __libspace_start                         0x20016f84   Data          96  libspace.o(.bss)
    __temporary_stack_top$libspace           0x20016fe4   Data           0  libspace.o(.bss)



==============================================================================

Memory Map of the image

  Image Entry point : 0x08020185

  Load Region LR_IROM1 (Base: 0x08020000, Size: 0x000115fc, Max: 0x00020000, ABSOLUTE, COMPRESSED[0x000112dc])

    Execution Region ER_IROM1 (Base: 0x08020000, Size: 0x0001119c, Max: 0x00020000, ABSOLUTE)

    Base Addr    Size         Type   Attr      Idx    E Section Name        Object

    0x08020000   0x00000184   Data   RO          777    RESET               startup_stm32f2xx.o
    0x08020184   0x00000008   Code   RO         1668  * !!!main             c_w.l(__main.o)
    0x0802018c   0x00000034   Code   RO         1882    !!!scatter          c_w.l(__scatter.o)
    0x080201c0   0x0000005a   Code   RO         1880    !!dczerorl2         c_w.l(__dczerorl2.o)
    0x0802021a   0x00000002   PAD
    0x0802021c   0x0000001c   Code   RO         1884    !!handler_zi        c_w.l(__scatter_zi.o)
    0x08020238   0x00000000   Code   RO         1643    .ARM.Collect$$_printf_percent$$00000000  c_w.l(_printf_percent.o)
    0x08020238   0x00000006   Code   RO         1642    .ARM.Collect$$_printf_percent$$00000009  c_w.l(_printf_d.o)
    0x0802023e   0x00000006   Code   RO         1641    .ARM.Collect$$_printf_percent$$0000000C  c_w.l(_printf_x.o)
    0x08020244   0x00000006   Code   RO         1640    .ARM.Collect$$_printf_percent$$00000014  c_w.l(_printf_s.o)
    0x0802024a   0x00000004   Code   RO         1706    .ARM.Collect$$_printf_percent$$00000017  c_w.l(_printf_percent_end.o)
    0x0802024e   0x00000006   Code   RO         1813    .ARM.Collect$$libinit$$00000000  c_w.l(libinit.o)
    0x08020254   0x00000008   Code   RO         1709    .ARM.Collect$$libinit$$00000001  c_w.l(libinit2.o)
    0x0802025c   0x00000000   Code   RO         1711    .ARM.Collect$$libinit$$00000006  c_w.l(libinit2.o)
    0x0802025c   0x00000000   Code   RO         1713    .ARM.Collect$$libinit$$00000008  c_w.l(libinit2.o)
    0x0802025c   0x00000000   Code   RO         1715    .ARM.Collect$$libinit$$0000000A  c_w.l(libinit2.o)
    0x0802025c   0x00000000   Code   RO         1718    .ARM.Collect$$libinit$$0000000D  c_w.l(libinit2.o)
    0x0802025c   0x00000000   Code   RO         1720    .ARM.Collect$$libinit$$0000000F  c_w.l(libinit2.o)
    0x0802025c   0x00000000   Code   RO         1722    .ARM.Collect$$libinit$$00000011  c_w.l(libinit2.o)
    0x0802025c   0x00000000   Code   RO         1724    .ARM.Collect$$libinit$$00000013  c_w.l(libinit2.o)
    0x0802025c   0x00000000   Code   RO         1726    .ARM.Collect$$libinit$$00000015  c_w.l(libinit2.o)
    0x0802025c   0x00000000   Code   RO         1728    .ARM.Collect$$libinit$$00000017  c_w.l(libinit2.o)
    0x0802025c   0x00000000   Code   RO         1730    .ARM.Collect$$libinit$$00000019  c_w.l(libinit2.o)
    0x0802025c   0x00000000   Code   RO         1732    .ARM.Collect$$libinit$$0000001B  c_w.l(libinit2.o)
    0x0802025c   0x00000000   Code   RO         1734    .ARM.Collect$$libinit$$0000001D  c_w.l(libinit2.o)
    0x0802025c   0x00000000   Code   RO         1736    .ARM.Collect$$libinit$$0000001F  c_w.l(libinit2.o)
    0x0802025c   0x00000000   Code   RO         1738    .ARM.Collect$$libinit$$00000021  c_w.l(libinit2.o)
    0x0802025c   0x00000000   Code   RO         1742    .ARM.Collect$$libinit$$00000028  c_w.l(libinit2.o)
    0x0802025c   0x00000000   Code   RO         1744    .ARM.Collect$$libinit$$0000002A  c_w.l(libinit2.o)
    0x0802025c   0x00000000   Code   RO         1746    .ARM.Collect$$libinit$$0000002C  c_w.l(libinit2.o)
    0x0802025c   0x00000000   Code   RO         1748    .ARM.Collect$$libinit$$0000002E  c_w.l(libinit2.o)
    0x0802025c   0x00000002   Code   RO         1749    .ARM.Collect$$libinit$$0000002F  c_w.l(libinit2.o)
    0x0802025e   0x00000002   Code   RO         1877    .ARM.Collect$$libshutdown$$00000000  c_w.l(libshutdown.o)
    0x08020260   0x00000000   Code   RO         1828    .ARM.Collect$$libshutdown$$00000003  c_w.l(libshutdown2.o)
    0x08020260   0x00000000   Code   RO         1831    .ARM.Collect$$libshutdown$$00000006  c_w.l(libshutdown2.o)
    0x08020260   0x00000000   Code   RO         1834    .ARM.Collect$$libshutdown$$00000009  c_w.l(libshutdown2.o)
    0x08020260   0x00000000   Code   RO         1836    .ARM.Collect$$libshutdown$$0000000B  c_w.l(libshutdown2.o)
    0x08020260   0x00000000   Code   RO         1839    .ARM.Collect$$libshutdown$$0000000E  c_w.l(libshutdown2.o)
    0x08020260   0x00000002   Code   RO         1840    .ARM.Collect$$libshutdown$$0000000F  c_w.l(libshutdown2.o)
    0x08020262   0x00000000   Code   RO         1672    .ARM.Collect$$rtentry$$00000000  c_w.l(rtentry.o)
    0x08020262   0x00000000   Code   RO         1756    .ARM.Collect$$rtentry$$00000002  c_w.l(rtentry2.o)
    0x08020262   0x00000006   Code   RO         1768    .ARM.Collect$$rtentry$$00000004  c_w.l(rtentry4.o)
    0x08020268   0x00000000   Code   RO         1758    .ARM.Collect$$rtentry$$00000009  c_w.l(rtentry2.o)
    0x08020268   0x00000004   Code   RO         1759    .ARM.Collect$$rtentry$$0000000A  c_w.l(rtentry2.o)
    0x0802026c   0x00000000   Code   RO         1761    .ARM.Collect$$rtentry$$0000000C  c_w.l(rtentry2.o)
    0x0802026c   0x00000008   Code   RO         1762    .ARM.Collect$$rtentry$$0000000D  c_w.l(rtentry2.o)
    0x08020274   0x00000002   Code   RO         1816    .ARM.Collect$$rtexit$$00000000  c_w.l(rtexit.o)
    0x08020276   0x00000000   Code   RO         1846    .ARM.Collect$$rtexit$$00000002  c_w.l(rtexit2.o)
    0x08020276   0x00000004   Code   RO         1847    .ARM.Collect$$rtexit$$00000003  c_w.l(rtexit2.o)
    0x0802027a   0x00000006   Code   RO         1848    .ARM.Collect$$rtexit$$00000004  c_w.l(rtexit2.o)
    0x08020280   0x00000020   Code   RO          764    .emb_text           core_cm3.o
    0x080202a0   0x00000000   Code   RO         1772    .emb_text           c_w.l(maybetermalloc1.o)
    0x080202a0   0x00000188   Code   RO            1    .text               main.o
    0x08020428   0x0000003e   Code   RO          288    .text               mem_str.o
    0x08020466   0x00000002   PAD
    0x08020468   0x00000120   Code   RO          338    .text               p_sys.o
    0x08020588   0x00000298   Code   RO          352    .text               hc595.o
    0x08020820   0x000000bc   Code   RO          372    .text               myapp.o
    0x080208dc   0x00000258   Code   RO          390    .text               myaudio.o
    0x08020b34   0x000003ec   Code   RO          418    .text               myboard.o
    0x08020f20   0x000004e0   Code   RO          433    .text               mycommander.o
    0x08021400   0x00000178   Code   RO          449    .text               myethernet.o
    0x08021578   0x000009ec   Code   RO          479    .text               myhttpd.o
    0x08021f64   0x000003dc   Code   RO          577    .text               myi2c.o
    0x08022340   0x00000622   Code   RO          589    .text               myi2s.o
    0x08022962   0x00000002   PAD
    0x08022964   0x0000056c   Code   RO          608    .text               mylwip.o
    0x08022ed0   0x0000038c   Code   RO          627    .text               mymiscfunc.o
    0x0802325c   0x00000404   Code   RO          639    .text               mynet.o
    0x08023660   0x000002f4   Code   RO          662    .text               myprotocol.o
    0x08023954   0x00000238   Code   RO          684    .text               mystorage.o
    0x08023b8c   0x00000130   Code   RO          715    .text               mytimer.o
    0x08023cbc   0x00000030   Code   RO          737    .text               stm32f2xx_it.o
    0x08023cec   0x00000114   Code   RO          752    .text               bsp_dev_id.o
    0x08023e00   0x00000040   Code   RO          778    .text               startup_stm32f2xx.o
    0x08023e40   0x000001d8   Code   RO          782    .text               system_stm32f2xx.o
    0x08024018   0x00000e9c   Code   RO          800    .text               stm32f2x7_eth.o
    0x08024eb4   0x00000378   Code   RO          917    .text               mem.o
    0x0802522c   0x000000b4   Code   RO          932    .text               memp.o
    0x080252e0   0x00000214   Code   RO          962    .text               netif.o
    0x080254f4   0x000005ea   Code   RO          984    .text               pbuf.o
    0x08025ade   0x00000002   PAD
    0x08025ae0   0x000001b0   Code   RO          999    .text               raw.o
    0x08025c90   0x00000c60   Code   RO         1025    .text               tcp.o
    0x080268f0   0x00001320   Code   RO         1046    .text               tcp_in.o
    0x08027c10   0x00000b14   Code   RO         1069    .text               tcp_out.o
    0x08028724   0x000003fc   Code   RO         1081    .text               udp.o
    0x08028b20   0x00000424   Code   RO         1099    .text               autoip.o
    0x08028f44   0x0000021c   Code   RO         1111    .text               icmp.o
    0x08029160   0x0000024c   Code   RO         1129    .text               inet.o
    0x080293ac   0x0000016e   Code   RO         1142    .text               inet_chksum.o
    0x0802951a   0x00000002   PAD
    0x0802951c   0x00000318   Code   RO         1161    .text               ip.o
    0x08029834   0x0000004e   Code   RO         1182    .text               ip_addr.o
    0x08029882   0x00000002   PAD
    0x08029884   0x00000628   Code   RO         1204    .text               ip_frag.o
    0x08029eac   0x000009d0   Code   RO         1219    .text               etharp.o
    0x0802a87c   0x000001fc   Code   RO         1260    .text               ethernetif.o
    0x0802aa78   0x00000108   Code   RO         1273    .text               misc.o
    0x0802ab80   0x000003d8   Code   RO         1297    .text               stm32f2xx_dma.o
    0x0802af58   0x000004cc   Code   RO         1321    .text               stm32f2xx_flash.o
    0x0802b424   0x000002b0   Code   RO         1333    .text               stm32f2xx_gpio.o
    0x0802b6d4   0x0000048c   Code   RO         1345    .text               stm32f2xx_i2c.o
    0x0802bb60   0x000005d0   Code   RO         1369    .text               stm32f2xx_rcc.o
    0x0802c130   0x000003dc   Code   RO         1383    .text               stm32f2xx_spi.o
    0x0802c50c   0x000000ac   Code   RO         1395    .text               stm32f2xx_syscfg.o
    0x0802c5b8   0x00000d74   Code   RO         1437    .text               process_net.o
    0x0802d32c   0x00000b9c   Code   RO         1457    .text               process_ledscreen.o
    0x0802dec8   0x000004e4   Code   RO         1477    .text               flash_if.o
    0x0802e3ac   0x00000574   Code   RO         1506    .text               tftp_cli.o
    0x0802e920   0x0000005e   Code   RO         1529    .text               c_w.l(h1_alloc.o)
    0x0802e97e   0x0000004e   Code   RO         1531    .text               c_w.l(h1_free.o)
    0x0802e9cc   0x00000028   Code   RO         1589    .text               c_w.l(noretval__2sprintf.o)
    0x0802e9f4   0x00000052   Code   RO         1593    .text               c_w.l(_printf_pad.o)
    0x0802ea46   0x00000052   Code   RO         1595    .text               c_w.l(_printf_str.o)
    0x0802ea98   0x00000078   Code   RO         1597    .text               c_w.l(_printf_dec.o)
    0x0802eb10   0x0000005c   Code   RO         1602    .text               c_w.l(_printf_hex_int.o)
    0x0802eb6c   0x0000013c   Code   RO         1632    .text               c_w.l(__printf_flags_wp.o)
    0x0802eca8   0x00000058   Code   RO         1644    .text               c_w.l(memcmp.o)
    0x0802ed00   0x0000003e   Code   RO         1646    .text               c_w.l(strlen.o)
    0x0802ed3e   0x00000096   Code   RO         1648    .text               c_w.l(strncmp.o)
    0x0802edd4   0x00000018   Code   RO         1650    .text               c_w.l(strcat.o)
    0x0802edec   0x0000008a   Code   RO         1652    .text               c_w.l(rt_memcpy_v6.o)
    0x0802ee76   0x00000064   Code   RO         1654    .text               c_w.l(rt_memcpy_w.o)
    0x0802eeda   0x00000010   Code   RO         1656    .text               c_w.l(aeabi_memset.o)
    0x0802eeea   0x00000044   Code   RO         1658    .text               c_w.l(rt_memclr.o)
    0x0802ef2e   0x0000004e   Code   RO         1660    .text               c_w.l(rt_memclr_w.o)
    0x0802ef7c   0x00000080   Code   RO         1664    .text               c_w.l(strcmpv7m.o)
    0x0802effc   0x00000006   Code   RO         1666    .text               c_w.l(heapauxi.o)
    0x0802f002   0x00000002   PAD
    0x0802f004   0x00000008   Code   RO         1676    .text               c_w.l(rt_heap_descriptor_intlibspace.o)
    0x0802f00c   0x00000004   Code   RO         1678    .text               c_w.l(hguard.o)
    0x0802f010   0x0000008a   Code   RO         1680    .text               c_w.l(init_alloc.o)
    0x0802f09a   0x0000000e   Code   RO         1684    .text               c_w.l(h1_init.o)
    0x0802f0a8   0x000000b8   Code   RO         1698    .text               c_w.l(_printf_intcommon.o)
    0x0802f160   0x00000030   Code   RO         1700    .text               c_w.l(_printf_char_common.o)
    0x0802f190   0x0000000a   Code   RO         1702    .text               c_w.l(_sputc.o)
    0x0802f19a   0x0000002c   Code   RO         1704    .text               c_w.l(_printf_char.o)
    0x0802f1c6   0x00000002   PAD
    0x0802f1c8   0x00000008   Code   RO         1752    .text               c_w.l(libspace.o)
    0x0802f1d0   0x00000034   Code   RO         1774    .text               c_w.l(h1_extend.o)
    0x0802f204   0x0000000e   Code   RO         1780    .text               c_w.l(defsig_rtmem_outer.o)
    0x0802f212   0x00000002   Code   RO         1789    .text               c_w.l(use_no_semi.o)
    0x0802f214   0x00000000   Code   RO         1791    .text               c_w.l(indicate_semi.o)
    0x0802f214   0x0000004a   Code   RO         1792    .text               c_w.l(sys_stackheap_outer.o)
    0x0802f25e   0x0000000c   Code   RO         1798    .text               c_w.l(exit.o)
    0x0802f26a   0x0000000a   Code   RO         1800    .text               c_w.l(defsig_exit.o)
    0x0802f274   0x00000050   Code   RO         1802    .text               c_w.l(defsig_rtmem_inner.o)
    0x0802f2c4   0x0000000c   Code   RO         1814    .text               c_w.l(sys_exit.o)
    0x0802f2d0   0x00000032   Code   RO         1824    .text               c_w.l(defsig_general.o)
    0x0802f302   0x0000000e   Code   RO         1843    .text               c_w.l(sys_wrch.o)
    0x0802f310   0x00000008   Code   RO         1855    .text               c_w.l(rt_fp_status_addr_intlibspace.o)
    0x0802f318   0x0000000e   Code   RO         1630    i._is_digit         c_w.l(__printf_wp.o)
    0x0802f326   0x0000000e   Code   RO         1841    x$fpl$fpinit        fz_ws.l(fpinit.o)
    0x0802f334   0x00000022   Data   RO          354    .constdata          hc595.o
    0x0802f356   0x00000002   PAD
    0x0802f358   0x00000250   Data   RO          435    .constdata          mycommander.o
    0x0802f5a8   0x00000ece   Data   RO          481    .constdata          myhttpd.o
    0x08030476   0x00000024   Data   RO          934    .constdata          memp.o
    0x0803049a   0x00000014   Data   RO         1026    .constdata          tcp.o
    0x080304ae   0x00000008   Data   RO         1183    .constdata          ip_addr.o
    0x080304b6   0x0000000c   Data   RO         1221    .constdata          etharp.o
    0x080304c2   0x00000002   PAD
    0x080304c4   0x000000e0   Data   RO         1439    .constdata          process_net.o
    0x080305a4   0x0000093a   Data   RO         1459    .constdata          process_ledscreen.o
    0x08030ede   0x00000028   Data   RO         1603    .constdata          c_w.l(_printf_hex_int.o)
    0x08030f06   0x00000011   Data   RO         1633    .constdata          c_w.l(__printf_flags_wp.o)
    0x08030f17   0x0000012a   Data   RO          482    .conststring        myhttpd.o
    0x08031041   0x00000068   Data   RO         1027    .conststring        tcp.o
    0x080310a9   0x00000099   Data   RO         1508    .conststring        tftp_cli.o
    0x08031142   0x00000038   Data   RO          483    .conststrlit        myhttpd.o
    0x0803117a   0x00000002   PAD
    0x0803117c   0x00000020   Data   RO         1878    Region$$Table       anon$$obj.o


    Execution Region RW_IRAM1 (Base: 0x20000000, Size: 0x000187e8, Max: 0x00020000, ABSOLUTE, COMPRESSED[0x00000140])

    Base Addr    Size         Type   Attr      Idx    E Section Name        Object

    0x20000000   0x00000017   Data   RW            2    .data               main.o
    0x20000017   0x00000001   PAD
    0x20000018   0x0000000a   Data   RW          339    .data               p_sys.o
    0x20000022   0x00000007   Data   RW          355    .data               hc595.o
    0x20000029   0x00000003   PAD
    0x2000002c   0x0000000c   Data   RW          373    .data               myapp.o
    0x20000038   0x0000006c   Data   RW          392    .data               myaudio.o
    0x200000a4   0x00000005   Data   RW          450    .data               myethernet.o
    0x200000a9   0x00000003   PAD
    0x200000ac   0x0000012a   Data   RW          484    .data               myhttpd.o
    0x200001d6   0x00000002   PAD
    0x200001d8   0x00000004   Data   RW          591    .data               myi2s.o
    0x200001dc   0x00000034   Data   RW          610    .data               mylwip.o
    0x20000210   0x00000030   Data   RW          641    .data               mynet.o
    0x20000240   0x00000014   Data   RW          663    .data               myprotocol.o
    0x20000254   0x00000004   Data   RW          686    .data               mystorage.o
    0x20000258   0x0000001c   Data   RW          716    .data               mytimer.o
    0x20000274   0x00000014   Data   RW          783    .data               system_stm32f2xx.o
    0x20000288   0x00000010   Data   RW          802    .data               stm32f2x7_eth.o
    0x20000298   0x0000000d   Data   RW          919    .data               mem.o
    0x200002a5   0x00000003   PAD
    0x200002a8   0x0000000c   Data   RW          963    .data               netif.o
    0x200002b4   0x00000004   Data   RW         1000    .data               raw.o
    0x200002b8   0x0000004d   Data   RW         1028    .data               tcp.o
    0x20000305   0x00000003   PAD
    0x20000308   0x00000020   Data   RW         1048    .data               tcp_in.o
    0x20000328   0x00000004   Data   RW         1082    .data               udp.o
    0x2000032c   0x0000000c   Data   RW         1162    .data               ip.o
    0x20000338   0x00000006   Data   RW         1206    .data               ip_frag.o
    0x2000033e   0x00000001   Data   RW         1222    .data               etharp.o
    0x2000033f   0x00000010   Data   RW         1370    .data               stm32f2xx_rcc.o
    0x2000034f   0x00000001   PAD
    0x20000350   0x0000000c   Data   RW         1440    .data               process_net.o
    0x2000035c   0x000000bb   Data   RW         1460    .data               process_ledscreen.o
    0x20000417   0x00000001   PAD
    0x20000418   0x0000000c   Data   RW         1478    .data               flash_if.o
    0x20000424   0x0000003c   Data   RW         1509    .data               tftp_cli.o
    0x20000460   0x00000360   Zero   RW          353    .bss                hc595.o
    0x200007c0   0x00002000   Zero   RW          391    .bss                myaudio.o
    0x200027c0   0x00000100   Zero   RW          434    .bss                mycommander.o
    0x200028c0   0x00000800   Zero   RW          480    .bss                myhttpd.o
    0x200030c0   0x00002000   Zero   RW          590    .bss                myi2s.o
    0x200050c0   0x00000034   Zero   RW          609    .bss                mylwip.o
    0x200050f4   0x00000500   Zero   RW          640    .bss                mynet.o
    0x200055f4   0x00000018   Zero   RW          685    .bss                mystorage.o
    0x2000560c   0x00003cd4   Zero   RW          801    .bss                stm32f2x7_eth.o
    0x200092e0   0x00002814   Zero   RW          918    .bss                mem.o
    0x2000baf4   0x00006847   Zero   RW          933    .bss                memp.o
    0x2001233b   0x00000001   PAD
    0x2001233c   0x00000014   Zero   RW         1047    .bss                tcp_in.o
    0x20012350   0x00000010   Zero   RW         1130    .bss                inet.o
    0x20012360   0x000005e0   Zero   RW         1205    .bss                ip_frag.o
    0x20012940   0x000000c8   Zero   RW         1220    .bss                etharp.o
    0x20012a08   0x00001094   Zero   RW         1438    .bss                process_net.o
    0x20013a9c   0x000032c6   Zero   RW         1458    .bss                process_ledscreen.o
    0x20016d62   0x00000002   PAD
    0x20016d64   0x00000220   Zero   RW         1507    .bss                tftp_cli.o
    0x20016f84   0x00000060   Zero   RW         1753    .bss                c_w.l(libspace.o)
    0x20016fe4   0x00000004   PAD
    0x20016fe8   0x00000800   Zero   RW          776    HEAP                startup_stm32f2xx.o
    0x200177e8   0x00001000   Zero   RW          775    STACK               startup_stm32f2xx.o


==============================================================================

Image component sizes


      Code (inc. data)   RO Data    RW Data    ZI Data      Debug   Object Name

      1060         34          0          0          0       4474   autoip.o
       276          8          0          0          0       1386   bsp_dev_id.o
        32          0          0          0          0        580   core_cm3.o
      2512         24         12          1        200       9918   etharp.o
       508         40          0          0          0       2972   ethernetif.o
      1252         52          0         12          0       5610   flash_if.o
       664         34         34          7        864       2381   hc595.o
       540          0          0          0          0       2654   icmp.o
       588         10          0          0         16       3300   inet.o
       366          0          0          0          0       5378   inet_chksum.o
         0          0          0          0          0       5266   init.o
       792         20          0         12          0       6018   ip.o
        78          0          8          0          0       5597   ip_addr.o
      1576         18          0          6       1504       5980   ip_frag.o
       392         42          0         23          0     307359   main.o
       888         20          0         13      10260       3786   mem.o
        62          0          0          0          0       1258   mem_str.o
       180         18         36          0      26695       3026   memp.o
       264         30          0          0          0       1889   misc.o
       188         22          0         12          0       1787   myapp.o
       600         88          0        108       8192       4127   myaudio.o
      1004         20          0          0          0       2437   myboard.o
      1248        272        592          0        256       3437   mycommander.o
       376         16          0          5          0       1301   myethernet.o
      2540        374       4144        298       2048      35059   myhttpd.o
       988         26          0          0          0       3143   myi2c.o
      1570        100          0          4       8192       5079   myi2s.o
      1388        102          0         52         52       7938   mylwip.o
       908          6          0          0          0       4660   mymiscfunc.o
      1028         72          0         48       1280      22693   mynet.o
       756         30          0         20          0       7484   myprotocol.o
       568         32          0          4         24       2515   mystorage.o
       304         40          0         28          0      18959   mytimer.o
       532         22          0         12          0       5540   netif.o
       288         30          0         10          0       1855   p_sys.o
      1514          0          0          0          0       5912   pbuf.o
      2972        308       2362        187      12998      11101   process_ledscreen.o
      3444        176        224         12       4244      16654   process_net.o
       432          6          0          4          0       3565   raw.o
        64         26        388          0       6144        808   startup_stm32f2xx.o
      3740        100          0         16      15572      19992   stm32f2x7_eth.o
       984         50          0          0          0       6425   stm32f2xx_dma.o
      1228         68          0          0          0       7017   stm32f2xx_flash.o
       688         36          0          0          0       4045   stm32f2xx_gpio.o
      1164         26          0          0          0       8207   stm32f2xx_i2c.o
        48          0          0          0          0       1419   stm32f2xx_it.o
      1488        158          0         16          0      11111   stm32f2xx_rcc.o
       988         20          0          0          0       6444   stm32f2xx_spi.o
       172         22          0          0          0       1559   stm32f2xx_syscfg.o
       472         52          0         20          0       1787   system_stm32f2xx.o
      3168        108        124         77          0      18244   tcp.o
      4896        210          0         32         20      13376   tcp_in.o
      2836         14          0          0          0       7206   tcp_out.o
      1396         68        153         60        544       6606   tftp_cli.o
      1020          8          0          4          0       6489   udp.o

    ----------------------------------------------------------------------
     59040       3058       8115       1120      99108     664813   Object Totals
         0          0         32          0          0          0   (incl. Generated)
        10          0          6         17          3          0   (incl. Padding)

    ----------------------------------------------------------------------

      Code (inc. data)   RO Data    RW Data    ZI Data      Debug   Library Member Name

        90          0          0          0          0          0   __dczerorl2.o
         8          0          0          0          0         68   __main.o
       316          6         17          0          0         92   __printf_flags_wp.o
        14          0          0          0          0         68   __printf_wp.o
        52          8          0          0          0          0   __scatter.o
        28          0          0          0          0          0   __scatter_zi.o
        44          0          0          0          0        108   _printf_char.o
        48          6          0          0          0         96   _printf_char_common.o
         6          0          0          0          0          0   _printf_d.o
       120         18          0          0          0         92   _printf_dec.o
        92          4         40          0          0         88   _printf_hex_int.o
       184          0          0          0          0         88   _printf_intcommon.o
        82          0          0          0          0        108   _printf_pad.o
         0          0          0          0          0          0   _printf_percent.o
         4          0          0          0          0          0   _printf_percent_end.o
         6          0          0          0          0          0   _printf_s.o
        82          0          0          0          0         80   _printf_str.o
         6          0          0          0          0          0   _printf_x.o
        10          0          0          0          0         68   _sputc.o
        16          0          0          0          0         68   aeabi_memset.o
        10          0          0          0          0         68   defsig_exit.o
        50          0          0          0          0         88   defsig_general.o
        80         58          0          0          0         76   defsig_rtmem_inner.o
        14          0          0          0          0         80   defsig_rtmem_outer.o
        12          0          0          0          0         72   exit.o
        94          0          0          0          0         80   h1_alloc.o
        52          0          0          0          0         68   h1_extend.o
        78          0          0          0          0         80   h1_free.o
        14          0          0          0          0         84   h1_init.o
         6          0          0          0          0        152   heapauxi.o
         4          0          0          0          0        136   hguard.o
         0          0          0          0          0          0   indicate_semi.o
       138          0          0          0          0        168   init_alloc.o
         6          0          0          0          0          0   libinit.o
        10          0          0          0          0          0   libinit2.o
         2          0          0          0          0          0   libshutdown.o
         2          0          0          0          0          0   libshutdown2.o
         8          4          0          0         96         68   libspace.o
         0          0          0          0          0          0   maybetermalloc1.o
        88          0          0          0          0         76   memcmp.o
        40          6          0          0          0         84   noretval__2sprintf.o
         8          4          0          0          0         68   rt_fp_status_addr_intlibspace.o
         8          4          0          0          0         68   rt_heap_descriptor_intlibspace.o
        68          0          0          0          0         68   rt_memclr.o
        78          0          0          0          0         80   rt_memclr_w.o
       138          0          0          0          0         68   rt_memcpy_v6.o
       100          0          0          0          0         80   rt_memcpy_w.o
         0          0          0          0          0          0   rtentry.o
        12          0          0          0          0          0   rtentry2.o
         6          0          0          0          0          0   rtentry4.o
         2          0          0          0          0          0   rtexit.o
        10          0          0          0          0          0   rtexit2.o
        24          0          0          0          0         68   strcat.o
       128          0          0          0          0         68   strcmpv7m.o
        62          0          0          0          0         76   strlen.o
       150          0          0          0          0         80   strncmp.o
        12          4          0          0          0         68   sys_exit.o
        74          0          0          0          0         80   sys_stackheap_outer.o
        14          0          0          0          0         76   sys_wrch.o
         2          0          0          0          0         68   use_no_semi.o
        14          0          0          0          0         76   fpinit.o

    ----------------------------------------------------------------------
      2832        122         57          0        100       3496   Library Totals
         6          0          0          0          4          0   (incl. Padding)

    ----------------------------------------------------------------------

      Code (inc. data)   RO Data    RW Data    ZI Data      Debug   Library Name

      2812        122         57          0         96       3420   c_w.l
        14          0          0          0          0         76   fz_ws.l

    ----------------------------------------------------------------------
      2832        122         57          0        100       3496   Library Totals

    ----------------------------------------------------------------------

==============================================================================


      Code (inc. data)   RO Data    RW Data    ZI Data      Debug   

     61872       3180       8172       1120      99208     660613   Grand Totals
     61872       3180       8172        320      99208     660613   ELF Image Totals (compressed)
     61872       3180       8172        320          0          0   ROM Totals

==============================================================================

    Total RO  Size (Code + RO Data)                70044 (  68.40kB)
    Total RW  Size (RW Data + ZI Data)            100328 (  97.98kB)
    Total ROM Size (Code + RO Data + RW Data)      70364 (  68.71kB)

==============================================================================

